
snake_v3.exe:     file format pei-x86-64


Disassembly of section .text:

0000000140001000 <__mingw_invalidParameterHandler>:
   140001000:	c3                   	ret    
   140001001:	66 66 2e 0f 1f 84 00 	data16 cs nopw 0x0(%rax,%rax,1)
   140001008:	00 00 00 00 
   14000100c:	0f 1f 40 00          	nopl   0x0(%rax)

0000000140001010 <pre_c_init>:
   140001010:	48 83 ec 28          	sub    $0x28,%rsp
   140001014:	48 8b 05 85 4d 01 00 	mov    0x14d85(%rip),%rax        # 140015da0 <.refptr.mingw_initltsdrot_force>
   14000101b:	31 c9                	xor    %ecx,%ecx
   14000101d:	c7 00 01 00 00 00    	movl   $0x1,(%rax)
   140001023:	48 8b 05 86 4d 01 00 	mov    0x14d86(%rip),%rax        # 140015db0 <.refptr.mingw_initltsdyn_force>
   14000102a:	c7 00 01 00 00 00    	movl   $0x1,(%rax)
   140001030:	48 8b 05 89 4d 01 00 	mov    0x14d89(%rip),%rax        # 140015dc0 <.refptr.mingw_initltssuo_force>
   140001037:	c7 00 01 00 00 00    	movl   $0x1,(%rax)
   14000103d:	48 8b 05 4c 4d 01 00 	mov    0x14d4c(%rip),%rax        # 140015d90 <.refptr.mingw_initcharmax>
   140001044:	c7 00 01 00 00 00    	movl   $0x1,(%rax)
   14000104a:	48 8b 05 ef 4b 01 00 	mov    0x14bef(%rip),%rax        # 140015c40 <.refptr.__image_base__>
   140001051:	66 81 38 4d 5a       	cmpw   $0x5a4d,(%rax)
   140001056:	75 0f                	jne    140001067 <pre_c_init+0x57>
   140001058:	48 63 50 3c          	movslq 0x3c(%rax),%rdx
   14000105c:	48 01 d0             	add    %rdx,%rax
   14000105f:	81 38 50 45 00 00    	cmpl   $0x4550,(%rax)
   140001065:	74 69                	je     1400010d0 <pre_c_init+0xc0>
   140001067:	48 8b 05 12 4d 01 00 	mov    0x14d12(%rip),%rax        # 140015d80 <.refptr.mingw_app_type>
   14000106e:	89 0d ac 7f 01 00    	mov    %ecx,0x17fac(%rip)        # 140019020 <managedapp>
   140001074:	8b 00                	mov    (%rax),%eax
   140001076:	85 c0                	test   %eax,%eax
   140001078:	74 46                	je     1400010c0 <pre_c_init+0xb0>
   14000107a:	b9 02 00 00 00       	mov    $0x2,%ecx
   14000107f:	e8 34 1f 01 00       	call   140012fb8 <__set_app_type>
   140001084:	e8 b7 25 01 00       	call   140013640 <__p__fmode>
   140001089:	48 8b 15 b0 4c 01 00 	mov    0x14cb0(%rip),%rdx        # 140015d40 <.refptr._fmode>
   140001090:	8b 12                	mov    (%rdx),%edx
   140001092:	89 10                	mov    %edx,(%rax)
   140001094:	e8 97 25 01 00       	call   140013630 <__p__commode>
   140001099:	48 8b 15 80 4c 01 00 	mov    0x14c80(%rip),%rdx        # 140015d20 <.refptr._commode>
   1400010a0:	8b 12                	mov    (%rdx),%edx
   1400010a2:	89 10                	mov    %edx,(%rax)
   1400010a4:	e8 e7 22 00 00       	call   140003390 <_setargv>
   1400010a9:	48 8b 05 40 4b 01 00 	mov    0x14b40(%rip),%rax        # 140015bf0 <.refptr._MINGW_INSTALL_DEBUG_MATHERR>
   1400010b0:	83 38 01             	cmpl   $0x1,(%rax)
   1400010b3:	74 53                	je     140001108 <pre_c_init+0xf8>
   1400010b5:	31 c0                	xor    %eax,%eax
   1400010b7:	48 83 c4 28          	add    $0x28,%rsp
   1400010bb:	c3                   	ret    
   1400010bc:	0f 1f 40 00          	nopl   0x0(%rax)
   1400010c0:	b9 01 00 00 00       	mov    $0x1,%ecx
   1400010c5:	e8 ee 1e 01 00       	call   140012fb8 <__set_app_type>
   1400010ca:	eb b8                	jmp    140001084 <pre_c_init+0x74>
   1400010cc:	0f 1f 40 00          	nopl   0x0(%rax)
   1400010d0:	0f b7 50 18          	movzwl 0x18(%rax),%edx
   1400010d4:	66 81 fa 0b 01       	cmp    $0x10b,%dx
   1400010d9:	74 45                	je     140001120 <pre_c_init+0x110>
   1400010db:	66 81 fa 0b 02       	cmp    $0x20b,%dx
   1400010e0:	75 85                	jne    140001067 <pre_c_init+0x57>
   1400010e2:	83 b8 84 00 00 00 0e 	cmpl   $0xe,0x84(%rax)
   1400010e9:	0f 86 78 ff ff ff    	jbe    140001067 <pre_c_init+0x57>
   1400010ef:	8b 90 f8 00 00 00    	mov    0xf8(%rax),%edx
   1400010f5:	31 c9                	xor    %ecx,%ecx
   1400010f7:	85 d2                	test   %edx,%edx
   1400010f9:	0f 95 c1             	setne  %cl
   1400010fc:	e9 66 ff ff ff       	jmp    140001067 <pre_c_init+0x57>
   140001101:	0f 1f 80 00 00 00 00 	nopl   0x0(%rax)
   140001108:	48 8d 0d 61 23 00 00 	lea    0x2361(%rip),%rcx        # 140003470 <_matherr>
   14000110f:	e8 1c 29 00 00       	call   140003a30 <__mingw_setusermatherr>
   140001114:	31 c0                	xor    %eax,%eax
   140001116:	48 83 c4 28          	add    $0x28,%rsp
   14000111a:	c3                   	ret    
   14000111b:	0f 1f 44 00 00       	nopl   0x0(%rax,%rax,1)
   140001120:	83 78 74 0e          	cmpl   $0xe,0x74(%rax)
   140001124:	0f 86 3d ff ff ff    	jbe    140001067 <pre_c_init+0x57>
   14000112a:	44 8b 80 e8 00 00 00 	mov    0xe8(%rax),%r8d
   140001131:	31 c9                	xor    %ecx,%ecx
   140001133:	45 85 c0             	test   %r8d,%r8d
   140001136:	0f 95 c1             	setne  %cl
   140001139:	e9 29 ff ff ff       	jmp    140001067 <pre_c_init+0x57>
   14000113e:	66 90                	xchg   %ax,%ax

0000000140001140 <pre_cpp_init>:
   140001140:	48 83 ec 38          	sub    $0x38,%rsp
   140001144:	48 8b 05 25 4c 01 00 	mov    0x14c25(%rip),%rax        # 140015d70 <.refptr._newmode>
   14000114b:	4c 8d 05 d6 7e 01 00 	lea    0x17ed6(%rip),%r8        # 140019028 <envp>
   140001152:	48 8d 15 d7 7e 01 00 	lea    0x17ed7(%rip),%rdx        # 140019030 <argv>
   140001159:	48 8d 0d d8 7e 01 00 	lea    0x17ed8(%rip),%rcx        # 140019038 <argc>
   140001160:	8b 00                	mov    (%rax),%eax
   140001162:	89 05 b0 7e 01 00    	mov    %eax,0x17eb0(%rip)        # 140019018 <startinfo>
   140001168:	48 8d 05 a9 7e 01 00 	lea    0x17ea9(%rip),%rax        # 140019018 <startinfo>
   14000116f:	48 89 44 24 20       	mov    %rax,0x20(%rsp)
   140001174:	48 8b 05 b5 4b 01 00 	mov    0x14bb5(%rip),%rax        # 140015d30 <.refptr._dowildcard>
   14000117b:	44 8b 08             	mov    (%rax),%r9d
   14000117e:	e8 45 1e 01 00       	call   140012fc8 <__getmainargs>
   140001183:	90                   	nop
   140001184:	48 83 c4 38          	add    $0x38,%rsp
   140001188:	c3                   	ret    
   140001189:	0f 1f 80 00 00 00 00 	nopl   0x0(%rax)

0000000140001190 <__tmainCRTStartup>:
   140001190:	41 55                	push   %r13
   140001192:	41 54                	push   %r12
   140001194:	55                   	push   %rbp
   140001195:	57                   	push   %rdi
   140001196:	56                   	push   %rsi
   140001197:	53                   	push   %rbx
   140001198:	48 81 ec 98 00 00 00 	sub    $0x98,%rsp
   14000119f:	b9 0d 00 00 00       	mov    $0xd,%ecx
   1400011a4:	31 c0                	xor    %eax,%eax
   1400011a6:	4c 8d 44 24 20       	lea    0x20(%rsp),%r8
   1400011ab:	4c 89 c7             	mov    %r8,%rdi
   1400011ae:	f3 48 ab             	rep stos %rax,%es:(%rdi)
   1400011b1:	48 8b 3d c8 4b 01 00 	mov    0x14bc8(%rip),%rdi        # 140015d80 <.refptr.mingw_app_type>
   1400011b8:	44 8b 0f             	mov    (%rdi),%r9d
   1400011bb:	45 85 c9             	test   %r9d,%r9d
   1400011be:	0f 85 9c 02 00 00    	jne    140001460 <__tmainCRTStartup+0x2d0>
   1400011c4:	65 48 8b 04 25 30 00 	mov    %gs:0x30,%rax
   1400011cb:	00 00 
   1400011cd:	48 8b 1d cc 4a 01 00 	mov    0x14acc(%rip),%rbx        # 140015ca0 <.refptr.__native_startup_lock>
   1400011d4:	48 8b 70 08          	mov    0x8(%rax),%rsi
   1400011d8:	31 ed                	xor    %ebp,%ebp
   1400011da:	4c 8b 25 83 93 01 00 	mov    0x19383(%rip),%r12        # 14001a564 <__imp_Sleep>
   1400011e1:	eb 16                	jmp    1400011f9 <__tmainCRTStartup+0x69>
   1400011e3:	0f 1f 44 00 00       	nopl   0x0(%rax,%rax,1)
   1400011e8:	48 39 c6             	cmp    %rax,%rsi
   1400011eb:	0f 84 17 02 00 00    	je     140001408 <__tmainCRTStartup+0x278>
   1400011f1:	b9 e8 03 00 00       	mov    $0x3e8,%ecx
   1400011f6:	41 ff d4             	call   *%r12
   1400011f9:	48 89 e8             	mov    %rbp,%rax
   1400011fc:	f0 48 0f b1 33       	lock cmpxchg %rsi,(%rbx)
   140001201:	48 85 c0             	test   %rax,%rax
   140001204:	75 e2                	jne    1400011e8 <__tmainCRTStartup+0x58>
   140001206:	48 8b 35 a3 4a 01 00 	mov    0x14aa3(%rip),%rsi        # 140015cb0 <.refptr.__native_startup_state>
   14000120d:	31 ed                	xor    %ebp,%ebp
   14000120f:	8b 06                	mov    (%rsi),%eax
   140001211:	83 f8 01             	cmp    $0x1,%eax
   140001214:	0f 84 05 02 00 00    	je     14000141f <__tmainCRTStartup+0x28f>
   14000121a:	8b 06                	mov    (%rsi),%eax
   14000121c:	85 c0                	test   %eax,%eax
   14000121e:	0f 84 6c 02 00 00    	je     140001490 <__tmainCRTStartup+0x300>
   140001224:	c7 05 ee 7d 01 00 01 	movl   $0x1,0x17dee(%rip)        # 14001901c <has_cctor>
   14000122b:	00 00 00 
   14000122e:	8b 06                	mov    (%rsi),%eax
   140001230:	83 f8 01             	cmp    $0x1,%eax
   140001233:	0f 84 fb 01 00 00    	je     140001434 <__tmainCRTStartup+0x2a4>
   140001239:	85 ed                	test   %ebp,%ebp
   14000123b:	0f 84 14 02 00 00    	je     140001455 <__tmainCRTStartup+0x2c5>
   140001241:	48 8b 05 e8 49 01 00 	mov    0x149e8(%rip),%rax        # 140015c30 <.refptr.__dyn_tls_init_callback>
   140001248:	48 8b 00             	mov    (%rax),%rax
   14000124b:	48 85 c0             	test   %rax,%rax
   14000124e:	74 0c                	je     14000125c <__tmainCRTStartup+0xcc>
   140001250:	45 31 c0             	xor    %r8d,%r8d
   140001253:	ba 02 00 00 00       	mov    $0x2,%edx
   140001258:	31 c9                	xor    %ecx,%ecx
   14000125a:	ff d0                	call   *%rax
   14000125c:	e8 ff 24 00 00       	call   140003760 <_pei386_runtime_relocator>
   140001261:	48 8d 0d d8 27 00 00 	lea    0x27d8(%rip),%rcx        # 140003a40 <_gnu_exception_handler>
   140001268:	ff 15 ee 92 01 00    	call   *0x192ee(%rip)        # 14001a55c <__imp_SetUnhandledExceptionFilter>
   14000126e:	48 8b 15 1b 4a 01 00 	mov    0x14a1b(%rip),%rdx        # 140015c90 <.refptr.__mingw_oldexcpt_handler>
   140001275:	48 8d 0d 84 fd ff ff 	lea    -0x27c(%rip),%rcx        # 140001000 <__mingw_invalidParameterHandler>
   14000127c:	48 89 02             	mov    %rax,(%rdx)
   14000127f:	e8 bc 22 01 00       	call   140013540 <_set_invalid_parameter_handler>
   140001284:	e8 e7 22 00 00       	call   140003570 <_fpreset>
   140001289:	48 8b 05 b0 49 01 00 	mov    0x149b0(%rip),%rax        # 140015c40 <.refptr.__image_base__>
   140001290:	48 89 05 79 7d 01 00 	mov    %rax,0x17d79(%rip)        # 140019010 <__mingw_winmain_hInstance>
   140001297:	e8 84 23 01 00       	call   140013620 <__p__acmdln>
   14000129c:	31 c9                	xor    %ecx,%ecx
   14000129e:	48 8b 00             	mov    (%rax),%rax
   1400012a1:	48 85 c0             	test   %rax,%rax
   1400012a4:	75 1c                	jne    1400012c2 <__tmainCRTStartup+0x132>
   1400012a6:	eb 58                	jmp    140001300 <__tmainCRTStartup+0x170>
   1400012a8:	0f 1f 84 00 00 00 00 	nopl   0x0(%rax,%rax,1)
   1400012af:	00 
   1400012b0:	84 d2                	test   %dl,%dl
   1400012b2:	74 45                	je     1400012f9 <__tmainCRTStartup+0x169>
   1400012b4:	83 e1 01             	and    $0x1,%ecx
   1400012b7:	74 27                	je     1400012e0 <__tmainCRTStartup+0x150>
   1400012b9:	b9 01 00 00 00       	mov    $0x1,%ecx
   1400012be:	48 83 c0 01          	add    $0x1,%rax
   1400012c2:	0f b6 10             	movzbl (%rax),%edx
   1400012c5:	80 fa 20             	cmp    $0x20,%dl
   1400012c8:	7e e6                	jle    1400012b0 <__tmainCRTStartup+0x120>
   1400012ca:	41 89 c8             	mov    %ecx,%r8d
   1400012cd:	41 83 f0 01          	xor    $0x1,%r8d
   1400012d1:	80 fa 22             	cmp    $0x22,%dl
   1400012d4:	41 0f 44 c8          	cmove  %r8d,%ecx
   1400012d8:	eb e4                	jmp    1400012be <__tmainCRTStartup+0x12e>
   1400012da:	66 0f 1f 44 00 00    	nopw   0x0(%rax,%rax,1)
   1400012e0:	84 d2                	test   %dl,%dl
   1400012e2:	74 15                	je     1400012f9 <__tmainCRTStartup+0x169>
   1400012e4:	0f 1f 40 00          	nopl   0x0(%rax)
   1400012e8:	0f b6 50 01          	movzbl 0x1(%rax),%edx
   1400012ec:	48 83 c0 01          	add    $0x1,%rax
   1400012f0:	84 d2                	test   %dl,%dl
   1400012f2:	74 05                	je     1400012f9 <__tmainCRTStartup+0x169>
   1400012f4:	80 fa 20             	cmp    $0x20,%dl
   1400012f7:	7e ef                	jle    1400012e8 <__tmainCRTStartup+0x158>
   1400012f9:	48 89 05 08 7d 01 00 	mov    %rax,0x17d08(%rip)        # 140019008 <__mingw_winmain_lpCmdLine>
   140001300:	44 8b 07             	mov    (%rdi),%r8d
   140001303:	45 85 c0             	test   %r8d,%r8d
   140001306:	74 16                	je     14000131e <__tmainCRTStartup+0x18e>
   140001308:	b8 0a 00 00 00       	mov    $0xa,%eax
   14000130d:	f6 44 24 5c 01       	testb  $0x1,0x5c(%rsp)
   140001312:	0f 85 e0 00 00 00    	jne    1400013f8 <__tmainCRTStartup+0x268>
   140001318:	89 05 e2 2c 01 00    	mov    %eax,0x12ce2(%rip)        # 140014000 <__data_start__>
   14000131e:	48 63 2d 13 7d 01 00 	movslq 0x17d13(%rip),%rbp        # 140019038 <argc>
   140001325:	44 8d 65 01          	lea    0x1(%rbp),%r12d
   140001329:	4d 63 e4             	movslq %r12d,%r12
   14000132c:	49 c1 e4 03          	shl    $0x3,%r12
   140001330:	4c 89 e1             	mov    %r12,%rcx
   140001333:	e8 a8 1b 01 00       	call   140012ee0 <malloc>
   140001338:	4c 8b 2d f1 7c 01 00 	mov    0x17cf1(%rip),%r13        # 140019030 <argv>
   14000133f:	48 89 c7             	mov    %rax,%rdi
   140001342:	85 ed                	test   %ebp,%ebp
   140001344:	7e 42                	jle    140001388 <__tmainCRTStartup+0x1f8>
   140001346:	31 db                	xor    %ebx,%ebx
   140001348:	0f 1f 84 00 00 00 00 	nopl   0x0(%rax,%rax,1)
   14000134f:	00 
   140001350:	49 8b 4c dd 00       	mov    0x0(%r13,%rbx,8),%rcx
   140001355:	e8 36 1b 01 00       	call   140012e90 <strlen>
   14000135a:	48 8d 70 01          	lea    0x1(%rax),%rsi
   14000135e:	48 89 f1             	mov    %rsi,%rcx
   140001361:	e8 7a 1b 01 00       	call   140012ee0 <malloc>
   140001366:	49 89 f0             	mov    %rsi,%r8
   140001369:	48 89 04 df          	mov    %rax,(%rdi,%rbx,8)
   14000136d:	49 8b 54 dd 00       	mov    0x0(%r13,%rbx,8),%rdx
   140001372:	48 89 c1             	mov    %rax,%rcx
   140001375:	48 83 c3 01          	add    $0x1,%rbx
   140001379:	e8 5a 1b 01 00       	call   140012ed8 <memcpy>
   14000137e:	48 39 dd             	cmp    %rbx,%rbp
   140001381:	75 cd                	jne    140001350 <__tmainCRTStartup+0x1c0>
   140001383:	4a 8d 44 27 f8       	lea    -0x8(%rdi,%r12,1),%rax
   140001388:	48 c7 00 00 00 00 00 	movq   $0x0,(%rax)
   14000138f:	48 89 3d 9a 7c 01 00 	mov    %rdi,0x17c9a(%rip)        # 140019030 <argv>
   140001396:	e8 c5 1f 00 00       	call   140003360 <__main>
   14000139b:	48 8b 05 ae 48 01 00 	mov    0x148ae(%rip),%rax        # 140015c50 <.refptr.__imp___initenv>
   1400013a2:	4c 8b 05 7f 7c 01 00 	mov    0x17c7f(%rip),%r8        # 140019028 <envp>
   1400013a9:	8b 0d 89 7c 01 00    	mov    0x17c89(%rip),%ecx        # 140019038 <argc>
   1400013af:	48 8b 00             	mov    (%rax),%rax
   1400013b2:	4c 89 00             	mov    %r8,(%rax)
   1400013b5:	48 8b 15 74 7c 01 00 	mov    0x17c74(%rip),%rdx        # 140019030 <argv>
   1400013bc:	e8 ab 1e 00 00       	call   14000326c <main>
   1400013c1:	8b 0d 59 7c 01 00    	mov    0x17c59(%rip),%ecx        # 140019020 <managedapp>
   1400013c7:	89 05 57 7c 01 00    	mov    %eax,0x17c57(%rip)        # 140019024 <mainret>
   1400013cd:	85 c9                	test   %ecx,%ecx
   1400013cf:	0f 84 d9 00 00 00    	je     1400014ae <__tmainCRTStartup+0x31e>
   1400013d5:	8b 15 41 7c 01 00    	mov    0x17c41(%rip),%edx        # 14001901c <has_cctor>
   1400013db:	85 d2                	test   %edx,%edx
   1400013dd:	0f 84 8d 00 00 00    	je     140001470 <__tmainCRTStartup+0x2e0>
   1400013e3:	48 81 c4 98 00 00 00 	add    $0x98,%rsp
   1400013ea:	5b                   	pop    %rbx
   1400013eb:	5e                   	pop    %rsi
   1400013ec:	5f                   	pop    %rdi
   1400013ed:	5d                   	pop    %rbp
   1400013ee:	41 5c                	pop    %r12
   1400013f0:	41 5d                	pop    %r13
   1400013f2:	c3                   	ret    
   1400013f3:	0f 1f 44 00 00       	nopl   0x0(%rax,%rax,1)
   1400013f8:	0f b7 44 24 60       	movzwl 0x60(%rsp),%eax
   1400013fd:	e9 16 ff ff ff       	jmp    140001318 <__tmainCRTStartup+0x188>
   140001402:	66 0f 1f 44 00 00    	nopw   0x0(%rax,%rax,1)
   140001408:	48 8b 35 a1 48 01 00 	mov    0x148a1(%rip),%rsi        # 140015cb0 <.refptr.__native_startup_state>
   14000140f:	bd 01 00 00 00       	mov    $0x1,%ebp
   140001414:	8b 06                	mov    (%rsi),%eax
   140001416:	83 f8 01             	cmp    $0x1,%eax
   140001419:	0f 85 fb fd ff ff    	jne    14000121a <__tmainCRTStartup+0x8a>
   14000141f:	b9 1f 00 00 00       	mov    $0x1f,%ecx
   140001424:	e8 7f 1b 01 00       	call   140012fa8 <_amsg_exit>
   140001429:	8b 06                	mov    (%rsi),%eax
   14000142b:	83 f8 01             	cmp    $0x1,%eax
   14000142e:	0f 85 05 fe ff ff    	jne    140001239 <__tmainCRTStartup+0xa9>
   140001434:	48 8b 15 b5 48 01 00 	mov    0x148b5(%rip),%rdx        # 140015cf0 <.refptr.__xc_z>
   14000143b:	48 8b 0d 9e 48 01 00 	mov    0x1489e(%rip),%rcx        # 140015ce0 <.refptr.__xc_a>
   140001442:	e8 31 1b 01 00       	call   140012f78 <_initterm>
   140001447:	c7 06 02 00 00 00    	movl   $0x2,(%rsi)
   14000144d:	85 ed                	test   %ebp,%ebp
   14000144f:	0f 85 ec fd ff ff    	jne    140001241 <__tmainCRTStartup+0xb1>
   140001455:	31 c0                	xor    %eax,%eax
   140001457:	48 87 03             	xchg   %rax,(%rbx)
   14000145a:	e9 e2 fd ff ff       	jmp    140001241 <__tmainCRTStartup+0xb1>
   14000145f:	90                   	nop
   140001460:	4c 89 c1             	mov    %r8,%rcx
   140001463:	ff 15 13 90 01 00    	call   *0x19013(%rip)        # 14001a47c <__imp_GetStartupInfoA>
   140001469:	e9 56 fd ff ff       	jmp    1400011c4 <__tmainCRTStartup+0x34>
   14000146e:	66 90                	xchg   %ax,%ax
   140001470:	e8 23 1b 01 00       	call   140012f98 <_cexit>
   140001475:	8b 05 a9 7b 01 00    	mov    0x17ba9(%rip),%eax        # 140019024 <mainret>
   14000147b:	48 81 c4 98 00 00 00 	add    $0x98,%rsp
   140001482:	5b                   	pop    %rbx
   140001483:	5e                   	pop    %rsi
   140001484:	5f                   	pop    %rdi
   140001485:	5d                   	pop    %rbp
   140001486:	41 5c                	pop    %r12
   140001488:	41 5d                	pop    %r13
   14000148a:	c3                   	ret    
   14000148b:	0f 1f 44 00 00       	nopl   0x0(%rax,%rax,1)
   140001490:	48 8b 15 79 48 01 00 	mov    0x14879(%rip),%rdx        # 140015d10 <.refptr.__xi_z>
   140001497:	48 8b 0d 62 48 01 00 	mov    0x14862(%rip),%rcx        # 140015d00 <.refptr.__xi_a>
   14000149e:	c7 06 01 00 00 00    	movl   $0x1,(%rsi)
   1400014a4:	e8 cf 1a 01 00       	call   140012f78 <_initterm>
   1400014a9:	e9 80 fd ff ff       	jmp    14000122e <__tmainCRTStartup+0x9e>
   1400014ae:	89 c1                	mov    %eax,%ecx
   1400014b0:	e8 6b 1a 01 00       	call   140012f20 <exit>
   1400014b5:	90                   	nop
   1400014b6:	66 2e 0f 1f 84 00 00 	cs nopw 0x0(%rax,%rax,1)
   1400014bd:	00 00 00 

00000001400014c0 <WinMainCRTStartup>:
   1400014c0:	48 83 ec 28          	sub    $0x28,%rsp

00000001400014c4 <.l_startw>:
   1400014c4:	48 8b 05 b5 48 01 00 	mov    0x148b5(%rip),%rax        # 140015d80 <.refptr.mingw_app_type>
   1400014cb:	c7 00 01 00 00 00    	movl   $0x1,(%rax)
   1400014d1:	e8 ba fc ff ff       	call   140001190 <__tmainCRTStartup>
   1400014d6:	90                   	nop

00000001400014d7 <.l_endw>:
   1400014d7:	90                   	nop
   1400014d8:	48 83 c4 28          	add    $0x28,%rsp
   1400014dc:	c3                   	ret    
   1400014dd:	0f 1f 00             	nopl   (%rax)

00000001400014e0 <mainCRTStartup>:
   1400014e0:	48 83 ec 28          	sub    $0x28,%rsp

00000001400014e4 <.l_start>:
   1400014e4:	48 8b 05 95 48 01 00 	mov    0x14895(%rip),%rax        # 140015d80 <.refptr.mingw_app_type>
   1400014eb:	c7 00 00 00 00 00    	movl   $0x0,(%rax)
   1400014f1:	e8 9a fc ff ff       	call   140001190 <__tmainCRTStartup>
   1400014f6:	90                   	nop

00000001400014f7 <.l_end>:
   1400014f7:	90                   	nop
   1400014f8:	48 83 c4 28          	add    $0x28,%rsp
   1400014fc:	c3                   	ret    
   1400014fd:	0f 1f 00             	nopl   (%rax)

0000000140001500 <atexit>:
   140001500:	48 83 ec 28          	sub    $0x28,%rsp
   140001504:	e8 57 1a 01 00       	call   140012f60 <_onexit>
   140001509:	48 85 c0             	test   %rax,%rax
   14000150c:	0f 94 c0             	sete   %al
   14000150f:	0f b6 c0             	movzbl %al,%eax
   140001512:	f7 d8                	neg    %eax
   140001514:	48 83 c4 28          	add    $0x28,%rsp
   140001518:	c3                   	ret    
   140001519:	90                   	nop
   14000151a:	90                   	nop
   14000151b:	90                   	nop
   14000151c:	90                   	nop
   14000151d:	90                   	nop
   14000151e:	90                   	nop
   14000151f:	90                   	nop

0000000140001520 <__gcc_register_frame>:
   140001520:	48 8d 0d 09 00 00 00 	lea    0x9(%rip),%rcx        # 140001530 <__gcc_deregister_frame>
   140001527:	e9 d4 ff ff ff       	jmp    140001500 <atexit>
   14000152c:	0f 1f 40 00          	nopl   0x0(%rax)

0000000140001530 <__gcc_deregister_frame>:
   140001530:	c3                   	ret    
   140001531:	90                   	nop
   140001532:	90                   	nop
   140001533:	90                   	nop
   140001534:	90                   	nop
   140001535:	90                   	nop
   140001536:	90                   	nop
   140001537:	90                   	nop
   140001538:	90                   	nop
   140001539:	90                   	nop
   14000153a:	90                   	nop
   14000153b:	90                   	nop
   14000153c:	90                   	nop
   14000153d:	90                   	nop
   14000153e:	90                   	nop
   14000153f:	90                   	nop

0000000140001540 <printf>:
   140001540:	55                   	push   %rbp
   140001541:	53                   	push   %rbx
   140001542:	48 83 ec 38          	sub    $0x38,%rsp
   140001546:	48 8d 6c 24 30       	lea    0x30(%rsp),%rbp
   14000154b:	48 89 4d 20          	mov    %rcx,0x20(%rbp)
   14000154f:	48 89 55 28          	mov    %rdx,0x28(%rbp)
   140001553:	4c 89 45 30          	mov    %r8,0x30(%rbp)
   140001557:	4c 89 4d 38          	mov    %r9,0x38(%rbp)
   14000155b:	48 8d 45 28          	lea    0x28(%rbp),%rax
   14000155f:	48 89 45 f0          	mov    %rax,-0x10(%rbp)
   140001563:	48 8b 5d f0          	mov    -0x10(%rbp),%rbx
   140001567:	b9 01 00 00 00       	mov    $0x1,%ecx
   14000156c:	48 8b 05 6d 2b 01 00 	mov    0x12b6d(%rip),%rax        # 1400140e0 <__imp___acrt_iob_func>
   140001573:	ff d0                	call   *%rax
   140001575:	49 89 d8             	mov    %rbx,%r8
   140001578:	48 8b 55 20          	mov    0x20(%rbp),%rdx
   14000157c:	48 89 c1             	mov    %rax,%rcx
   14000157f:	e8 9c ca 00 00       	call   14000e020 <__mingw_vfprintf>
   140001584:	89 45 fc             	mov    %eax,-0x4(%rbp)
   140001587:	8b 45 fc             	mov    -0x4(%rbp),%eax
   14000158a:	48 83 c4 38          	add    $0x38,%rsp
   14000158e:	5b                   	pop    %rbx
   14000158f:	5d                   	pop    %rbp
   140001590:	c3                   	ret    

0000000140001591 <time>:
   140001591:	55                   	push   %rbp
   140001592:	48 89 e5             	mov    %rsp,%rbp
   140001595:	48 83 ec 20          	sub    $0x20,%rsp
   140001599:	48 89 4d 10          	mov    %rcx,0x10(%rbp)
   14000159d:	48 8b 4d 10          	mov    0x10(%rbp),%rcx
   1400015a1:	48 8b 05 e4 90 01 00 	mov    0x190e4(%rip),%rax        # 14001a68c <__imp__time64>
   1400015a8:	ff d0                	call   *%rax
   1400015aa:	48 83 c4 20          	add    $0x20,%rsp
   1400015ae:	5d                   	pop    %rbp
   1400015af:	c3                   	ret    

00000001400015b0 <getRand>:
   1400015b0:	55                   	push   %rbp
   1400015b1:	48 89 e5             	mov    %rsp,%rbp
   1400015b4:	48 83 ec 20          	sub    $0x20,%rsp
   1400015b8:	e8 fb 18 01 00       	call   140012eb8 <rand>
   1400015bd:	48 63 d0             	movslq %eax,%rdx
   1400015c0:	48 69 d2 89 88 88 88 	imul   $0xffffffff88888889,%rdx,%rdx
   1400015c7:	48 c1 ea 20          	shr    $0x20,%rdx
   1400015cb:	01 c2                	add    %eax,%edx
   1400015cd:	c1 fa 03             	sar    $0x3,%edx
   1400015d0:	89 c1                	mov    %eax,%ecx
   1400015d2:	c1 f9 1f             	sar    $0x1f,%ecx
   1400015d5:	29 ca                	sub    %ecx,%edx
   1400015d7:	89 d1                	mov    %edx,%ecx
   1400015d9:	c1 e1 04             	shl    $0x4,%ecx
   1400015dc:	29 d1                	sub    %edx,%ecx
   1400015de:	29 c8                	sub    %ecx,%eax
   1400015e0:	89 c2                	mov    %eax,%edx
   1400015e2:	89 d0                	mov    %edx,%eax
   1400015e4:	48 83 c4 20          	add    $0x20,%rsp
   1400015e8:	5d                   	pop    %rbp
   1400015e9:	c3                   	ret    

00000001400015ea <initEat>:
   1400015ea:	55                   	push   %rbp
   1400015eb:	48 89 e5             	mov    %rsp,%rbp
   1400015ee:	48 83 ec 30          	sub    $0x30,%rsp
   1400015f2:	48 89 4d 10          	mov    %rcx,0x10(%rbp)
   1400015f6:	b9 00 00 00 00       	mov    $0x0,%ecx
   1400015fb:	e8 91 ff ff ff       	call   140001591 <time>
   140001600:	89 c1                	mov    %eax,%ecx
   140001602:	e8 99 18 01 00       	call   140012ea0 <srand>
   140001607:	e8 a4 ff ff ff       	call   1400015b0 <getRand>
   14000160c:	88 45 fd             	mov    %al,-0x3(%rbp)
   14000160f:	e8 9c ff ff ff       	call   1400015b0 <getRand>
   140001614:	88 45 fe             	mov    %al,-0x2(%rbp)
   140001617:	c6 45 ff 00          	movb   $0x0,-0x1(%rbp)
   14000161b:	48 8b 45 10          	mov    0x10(%rbp),%rax
   14000161f:	0f b7 55 fd          	movzwl -0x3(%rbp),%edx
   140001623:	66 89 10             	mov    %dx,(%rax)
   140001626:	0f b6 55 ff          	movzbl -0x1(%rbp),%edx
   14000162a:	88 50 02             	mov    %dl,0x2(%rax)
   14000162d:	48 8b 45 10          	mov    0x10(%rbp),%rax
   140001631:	48 83 c4 30          	add    $0x30,%rsp
   140001635:	5d                   	pop    %rbp
   140001636:	c3                   	ret    

0000000140001637 <setSnakeColor>:
   140001637:	55                   	push   %rbp
   140001638:	48 89 e5             	mov    %rsp,%rbp
   14000163b:	48 83 ec 30          	sub    $0x30,%rsp
   14000163f:	48 89 4d 10          	mov    %rcx,0x10(%rbp)
   140001643:	b9 f5 ff ff ff       	mov    $0xfffffff5,%ecx
   140001648:	48 8b 05 35 8e 01 00 	mov    0x18e35(%rip),%rax        # 14001a484 <__imp_GetStdHandle>
   14000164f:	ff d0                	call   *%rax
   140001651:	48 89 45 f8          	mov    %rax,-0x8(%rbp)
   140001655:	48 8b 45 f8          	mov    -0x8(%rbp),%rax
   140001659:	ba 04 00 00 00       	mov    $0x4,%edx
   14000165e:	48 89 c1             	mov    %rax,%rcx
   140001661:	48 8b 05 c4 8e 01 00 	mov    0x18ec4(%rip),%rax        # 14001a52c <__imp_SetConsoleTextAttribute>
   140001668:	ff d0                	call   *%rax
   14000166a:	48 8d 0d 8f 39 01 00 	lea    0x1398f(%rip),%rcx        # 140015000 <.rdata>
   140001671:	e8 ca fe ff ff       	call   140001540 <printf>
   140001676:	48 8b 45 f8          	mov    -0x8(%rbp),%rax
   14000167a:	ba 01 00 00 00       	mov    $0x1,%edx
   14000167f:	48 89 c1             	mov    %rax,%rcx
   140001682:	48 8b 05 a3 8e 01 00 	mov    0x18ea3(%rip),%rax        # 14001a52c <__imp_SetConsoleTextAttribute>
   140001689:	ff d0                	call   *%rax
   14000168b:	48 8d 0d 77 39 01 00 	lea    0x13977(%rip),%rcx        # 140015009 <.rdata+0x9>
   140001692:	e8 a9 fe ff ff       	call   140001540 <printf>
   140001697:	48 8b 45 f8          	mov    -0x8(%rbp),%rax
   14000169b:	ba 02 00 00 00       	mov    $0x2,%edx
   1400016a0:	48 89 c1             	mov    %rax,%rcx
   1400016a3:	48 8b 05 82 8e 01 00 	mov    0x18e82(%rip),%rax        # 14001a52c <__imp_SetConsoleTextAttribute>
   1400016aa:	ff d0                	call   *%rax
   1400016ac:	48 8d 0d 60 39 01 00 	lea    0x13960(%rip),%rcx        # 140015013 <.rdata+0x13>
   1400016b3:	e8 88 fe ff ff       	call   140001540 <printf>
   1400016b8:	48 8b 45 f8          	mov    -0x8(%rbp),%rax
   1400016bc:	ba 0b 00 00 00       	mov    $0xb,%edx
   1400016c1:	48 89 c1             	mov    %rax,%rcx
   1400016c4:	48 8b 05 61 8e 01 00 	mov    0x18e61(%rip),%rax        # 14001a52c <__imp_SetConsoleTextAttribute>
   1400016cb:	ff d0                	call   *%rax
   1400016cd:	48 8d 0d 4a 39 01 00 	lea    0x1394a(%rip),%rcx        # 14001501e <.rdata+0x1e>
   1400016d4:	e8 67 fe ff ff       	call   140001540 <printf>
   1400016d9:	48 8b 45 f8          	mov    -0x8(%rbp),%rax
   1400016dd:	ba 0e 00 00 00       	mov    $0xe,%edx
   1400016e2:	48 89 c1             	mov    %rax,%rcx
   1400016e5:	48 8b 05 40 8e 01 00 	mov    0x18e40(%rip),%rax        # 14001a52c <__imp_SetConsoleTextAttribute>
   1400016ec:	ff d0                	call   *%rax
   1400016ee:	48 8d 0d 33 39 01 00 	lea    0x13933(%rip),%rcx        # 140015028 <.rdata+0x28>
   1400016f5:	e8 46 fe ff ff       	call   140001540 <printf>
   1400016fa:	48 8b 45 f8          	mov    -0x8(%rbp),%rax
   1400016fe:	ba 07 00 00 00       	mov    $0x7,%edx
   140001703:	48 89 c1             	mov    %rax,%rcx
   140001706:	48 8b 05 1f 8e 01 00 	mov    0x18e1f(%rip),%rax        # 14001a52c <__imp_SetConsoleTextAttribute>
   14000170d:	ff d0                	call   *%rax
   14000170f:	e8 6c 18 01 00       	call   140012f80 <getch>
   140001714:	88 45 f7             	mov    %al,-0x9(%rbp)
   140001717:	80 7d f7 31          	cmpb   $0x31,-0x9(%rbp)
   14000171b:	75 0a                	jne    140001727 <setSnakeColor+0xf0>
   14000171d:	48 8b 45 10          	mov    0x10(%rbp),%rax
   140001721:	c6 40 03 04          	movb   $0x4,0x3(%rax)
   140001725:	eb 51                	jmp    140001778 <setSnakeColor+0x141>
   140001727:	80 7d f7 32          	cmpb   $0x32,-0x9(%rbp)
   14000172b:	75 0a                	jne    140001737 <setSnakeColor+0x100>
   14000172d:	48 8b 45 10          	mov    0x10(%rbp),%rax
   140001731:	c6 40 03 01          	movb   $0x1,0x3(%rax)
   140001735:	eb 41                	jmp    140001778 <setSnakeColor+0x141>
   140001737:	80 7d f7 33          	cmpb   $0x33,-0x9(%rbp)
   14000173b:	75 0a                	jne    140001747 <setSnakeColor+0x110>
   14000173d:	48 8b 45 10          	mov    0x10(%rbp),%rax
   140001741:	c6 40 03 02          	movb   $0x2,0x3(%rax)
   140001745:	eb 31                	jmp    140001778 <setSnakeColor+0x141>
   140001747:	80 7d f7 34          	cmpb   $0x34,-0x9(%rbp)
   14000174b:	75 0a                	jne    140001757 <setSnakeColor+0x120>
   14000174d:	48 8b 45 10          	mov    0x10(%rbp),%rax
   140001751:	c6 40 03 0b          	movb   $0xb,0x3(%rax)
   140001755:	eb 21                	jmp    140001778 <setSnakeColor+0x141>
   140001757:	80 7d f7 35          	cmpb   $0x35,-0x9(%rbp)
   14000175b:	75 0a                	jne    140001767 <setSnakeColor+0x130>
   14000175d:	48 8b 45 10          	mov    0x10(%rbp),%rax
   140001761:	c6 40 03 0e          	movb   $0xe,0x3(%rax)
   140001765:	eb 11                	jmp    140001778 <setSnakeColor+0x141>
   140001767:	48 8d 0d ca 38 01 00 	lea    0x138ca(%rip),%rcx        # 140015038 <.rdata+0x38>
   14000176e:	e8 cd fd ff ff       	call   140001540 <printf>
   140001773:	e9 dd fe ff ff       	jmp    140001655 <setSnakeColor+0x1e>
   140001778:	90                   	nop
   140001779:	48 83 c4 30          	add    $0x30,%rsp
   14000177d:	5d                   	pop    %rbp
   14000177e:	c3                   	ret    

000000014000177f <transferEatSingleGame>:
   14000177f:	55                   	push   %rbp
   140001780:	56                   	push   %rsi
   140001781:	53                   	push   %rbx
   140001782:	48 83 ec 20          	sub    $0x20,%rsp
   140001786:	48 8d 6c 24 20       	lea    0x20(%rsp),%rbp
   14000178b:	48 89 4d 20          	mov    %rcx,0x20(%rbp)
   14000178f:	48 89 d3             	mov    %rdx,%rbx
   140001792:	4c 89 c6             	mov    %r8,%rsi
   140001795:	4c 89 4d 38          	mov    %r9,0x38(%rbp)
   140001799:	0f b6 16             	movzbl (%rsi),%edx
   14000179c:	0f b6 03             	movzbl (%rbx),%eax
   14000179f:	38 c2                	cmp    %al,%dl
   1400017a1:	75 54                	jne    1400017f7 <transferEatSingleGame+0x78>
   1400017a3:	0f b6 56 01          	movzbl 0x1(%rsi),%edx
   1400017a7:	0f b6 43 01          	movzbl 0x1(%rbx),%eax
   1400017ab:	38 c2                	cmp    %al,%dl
   1400017ad:	75 48                	jne    1400017f7 <transferEatSingleGame+0x78>
   1400017af:	eb 0f                	jmp    1400017c0 <transferEatSingleGame+0x41>
   1400017b1:	e8 fa fd ff ff       	call   1400015b0 <getRand>
   1400017b6:	88 03                	mov    %al,(%rbx)
   1400017b8:	e8 f3 fd ff ff       	call   1400015b0 <getRand>
   1400017bd:	88 43 01             	mov    %al,0x1(%rbx)
   1400017c0:	0f b6 03             	movzbl (%rbx),%eax
   1400017c3:	48 0f be d0          	movsbq %al,%rdx
   1400017c7:	48 89 d0             	mov    %rdx,%rax
   1400017ca:	48 c1 e0 04          	shl    $0x4,%rax
   1400017ce:	48 29 d0             	sub    %rdx,%rax
   1400017d1:	48 89 c1             	mov    %rax,%rcx
   1400017d4:	48 8b 45 38          	mov    0x38(%rbp),%rax
   1400017d8:	48 8d 14 01          	lea    (%rcx,%rax,1),%rdx
   1400017dc:	0f b6 43 01          	movzbl 0x1(%rbx),%eax
   1400017e0:	0f be c0             	movsbl %al,%eax
   1400017e3:	48 98                	cltq   
   1400017e5:	0f b6 04 02          	movzbl (%rdx,%rax,1),%eax
   1400017e9:	3c 20                	cmp    $0x20,%al
   1400017eb:	75 c4                	jne    1400017b1 <transferEatSingleGame+0x32>
   1400017ed:	0f b6 43 02          	movzbl 0x2(%rbx),%eax
   1400017f1:	83 c0 01             	add    $0x1,%eax
   1400017f4:	88 43 02             	mov    %al,0x2(%rbx)
   1400017f7:	48 8b 45 20          	mov    0x20(%rbp),%rax
   1400017fb:	0f b7 13             	movzwl (%rbx),%edx
   1400017fe:	66 89 10             	mov    %dx,(%rax)
   140001801:	0f b6 53 02          	movzbl 0x2(%rbx),%edx
   140001805:	88 50 02             	mov    %dl,0x2(%rax)
   140001808:	48 8b 45 20          	mov    0x20(%rbp),%rax
   14000180c:	48 83 c4 20          	add    $0x20,%rsp
   140001810:	5b                   	pop    %rbx
   140001811:	5e                   	pop    %rsi
   140001812:	5d                   	pop    %rbp
   140001813:	c3                   	ret    

0000000140001814 <transferEatAiGame>:
   140001814:	55                   	push   %rbp
   140001815:	57                   	push   %rdi
   140001816:	56                   	push   %rsi
   140001817:	53                   	push   %rbx
   140001818:	48 83 ec 28          	sub    $0x28,%rsp
   14000181c:	48 8d 6c 24 20       	lea    0x20(%rsp),%rbp
   140001821:	48 89 4d 30          	mov    %rcx,0x30(%rbp)
   140001825:	48 89 d3             	mov    %rdx,%rbx
   140001828:	4c 89 c7             	mov    %r8,%rdi
   14000182b:	4c 89 ce             	mov    %r9,%rsi
   14000182e:	0f b6 17             	movzbl (%rdi),%edx
   140001831:	0f b6 03             	movzbl (%rbx),%eax
   140001834:	38 c2                	cmp    %al,%dl
   140001836:	75 0c                	jne    140001844 <transferEatAiGame+0x30>
   140001838:	0f b6 57 01          	movzbl 0x1(%rdi),%edx
   14000183c:	0f b6 43 01          	movzbl 0x1(%rbx),%eax
   140001840:	38 c2                	cmp    %al,%dl
   140001842:	74 27                	je     14000186b <transferEatAiGame+0x57>
   140001844:	0f b6 16             	movzbl (%rsi),%edx
   140001847:	0f b6 03             	movzbl (%rbx),%eax
   14000184a:	38 c2                	cmp    %al,%dl
   14000184c:	75 54                	jne    1400018a2 <transferEatAiGame+0x8e>
   14000184e:	0f b6 56 01          	movzbl 0x1(%rsi),%edx
   140001852:	0f b6 43 01          	movzbl 0x1(%rbx),%eax
   140001856:	38 c2                	cmp    %al,%dl
   140001858:	75 48                	jne    1400018a2 <transferEatAiGame+0x8e>
   14000185a:	eb 0f                	jmp    14000186b <transferEatAiGame+0x57>
   14000185c:	e8 4f fd ff ff       	call   1400015b0 <getRand>
   140001861:	88 03                	mov    %al,(%rbx)
   140001863:	e8 48 fd ff ff       	call   1400015b0 <getRand>
   140001868:	88 43 01             	mov    %al,0x1(%rbx)
   14000186b:	0f b6 03             	movzbl (%rbx),%eax
   14000186e:	48 0f be d0          	movsbq %al,%rdx
   140001872:	48 89 d0             	mov    %rdx,%rax
   140001875:	48 c1 e0 04          	shl    $0x4,%rax
   140001879:	48 29 d0             	sub    %rdx,%rax
   14000187c:	48 89 c1             	mov    %rax,%rcx
   14000187f:	48 8b 45 50          	mov    0x50(%rbp),%rax
   140001883:	48 8d 14 01          	lea    (%rcx,%rax,1),%rdx
   140001887:	0f b6 43 01          	movzbl 0x1(%rbx),%eax
   14000188b:	0f be c0             	movsbl %al,%eax
   14000188e:	48 98                	cltq   
   140001890:	0f b6 04 02          	movzbl (%rdx,%rax,1),%eax
   140001894:	3c 20                	cmp    $0x20,%al
   140001896:	75 c4                	jne    14000185c <transferEatAiGame+0x48>
   140001898:	0f b6 43 02          	movzbl 0x2(%rbx),%eax
   14000189c:	83 c0 01             	add    $0x1,%eax
   14000189f:	88 43 02             	mov    %al,0x2(%rbx)
   1400018a2:	48 8b 45 30          	mov    0x30(%rbp),%rax
   1400018a6:	0f b7 13             	movzwl (%rbx),%edx
   1400018a9:	66 89 10             	mov    %dx,(%rax)
   1400018ac:	0f b6 53 02          	movzbl 0x2(%rbx),%edx
   1400018b0:	88 50 02             	mov    %dl,0x2(%rax)
   1400018b3:	48 8b 45 30          	mov    0x30(%rbp),%rax
   1400018b7:	48 83 c4 28          	add    $0x28,%rsp
   1400018bb:	5b                   	pop    %rbx
   1400018bc:	5e                   	pop    %rsi
   1400018bd:	5f                   	pop    %rdi
   1400018be:	5d                   	pop    %rbp
   1400018bf:	c3                   	ret    

00000001400018c0 <initSnake>:
   1400018c0:	55                   	push   %rbp
   1400018c1:	48 89 e5             	mov    %rsp,%rbp
   1400018c4:	48 83 ec 40          	sub    $0x40,%rsp
   1400018c8:	48 89 4d 10          	mov    %rcx,0x10(%rbp)
   1400018cc:	89 55 18             	mov    %edx,0x18(%rbp)
   1400018cf:	44 89 45 20          	mov    %r8d,0x20(%rbp)
   1400018d3:	4c 89 4d 28          	mov    %r9,0x28(%rbp)
   1400018d7:	8b 45 18             	mov    0x18(%rbp),%eax
   1400018da:	88 45 e0             	mov    %al,-0x20(%rbp)
   1400018dd:	8b 45 20             	mov    0x20(%rbp),%eax
   1400018e0:	88 45 e1             	mov    %al,-0x1f(%rbp)
   1400018e3:	c6 45 e2 01          	movb   $0x1,-0x1e(%rbp)
   1400018e7:	c6 45 e3 0f          	movb   $0xf,-0x1d(%rbp)
   1400018eb:	48 8b 45 28          	mov    0x28(%rbp),%rax
   1400018ef:	48 89 45 f0          	mov    %rax,-0x10(%rbp)
   1400018f3:	b9 c8 00 00 00       	mov    $0xc8,%ecx
   1400018f8:	e8 e3 15 01 00       	call   140012ee0 <malloc>
   1400018fd:	48 89 45 e8          	mov    %rax,-0x18(%rbp)
   140001901:	c7 45 fc 00 00 00 00 	movl   $0x0,-0x4(%rbp)
   140001908:	eb 39                	jmp    140001943 <initSnake+0x83>
   14000190a:	8b 45 18             	mov    0x18(%rbp),%eax
   14000190d:	89 c2                	mov    %eax,%edx
   14000190f:	8b 45 fc             	mov    -0x4(%rbp),%eax
   140001912:	01 d0                	add    %edx,%eax
   140001914:	8d 48 01             	lea    0x1(%rax),%ecx
   140001917:	48 8b 55 e8          	mov    -0x18(%rbp),%rdx
   14000191b:	8b 45 fc             	mov    -0x4(%rbp),%eax
   14000191e:	48 98                	cltq   
   140001920:	48 01 c0             	add    %rax,%rax
   140001923:	48 01 d0             	add    %rdx,%rax
   140001926:	89 ca                	mov    %ecx,%edx
   140001928:	88 10                	mov    %dl,(%rax)
   14000192a:	48 8b 55 e8          	mov    -0x18(%rbp),%rdx
   14000192e:	8b 45 fc             	mov    -0x4(%rbp),%eax
   140001931:	48 98                	cltq   
   140001933:	48 01 c0             	add    %rax,%rax
   140001936:	48 01 d0             	add    %rdx,%rax
   140001939:	8b 55 20             	mov    0x20(%rbp),%edx
   14000193c:	88 50 01             	mov    %dl,0x1(%rax)
   14000193f:	83 45 fc 01          	addl   $0x1,-0x4(%rbp)
   140001943:	8b 45 fc             	mov    -0x4(%rbp),%eax
   140001946:	48 98                	cltq   
   140001948:	48 39 45 28          	cmp    %rax,0x28(%rbp)
   14000194c:	77 bc                	ja     14000190a <initSnake+0x4a>
   14000194e:	48 8b 4d 10          	mov    0x10(%rbp),%rcx
   140001952:	48 8b 45 e0          	mov    -0x20(%rbp),%rax
   140001956:	48 8b 55 e8          	mov    -0x18(%rbp),%rdx
   14000195a:	48 89 01             	mov    %rax,(%rcx)
   14000195d:	48 89 51 08          	mov    %rdx,0x8(%rcx)
   140001961:	48 8b 45 f0          	mov    -0x10(%rbp),%rax
   140001965:	48 89 41 10          	mov    %rax,0x10(%rcx)
   140001969:	48 8b 45 10          	mov    0x10(%rbp),%rax
   14000196d:	48 83 c4 40          	add    $0x40,%rsp
   140001971:	5d                   	pop    %rbp
   140001972:	c3                   	ret    

0000000140001973 <startMenu>:
   140001973:	55                   	push   %rbp
   140001974:	48 89 e5             	mov    %rsp,%rbp
   140001977:	48 83 ec 30          	sub    $0x30,%rsp
   14000197b:	48 8d 0d dd 36 01 00 	lea    0x136dd(%rip),%rcx        # 14001505f <.rdata+0x5f>
   140001982:	e8 b9 fb ff ff       	call   140001540 <printf>
   140001987:	48 8d 0d e2 36 01 00 	lea    0x136e2(%rip),%rcx        # 140015070 <.rdata+0x70>
   14000198e:	e8 ad fb ff ff       	call   140001540 <printf>
   140001993:	48 8d 0d e7 36 01 00 	lea    0x136e7(%rip),%rcx        # 140015081 <.rdata+0x81>
   14000199a:	e8 a1 fb ff ff       	call   140001540 <printf>
   14000199f:	48 8d 0d ed 36 01 00 	lea    0x136ed(%rip),%rcx        # 140015093 <.rdata+0x93>
   1400019a6:	e8 95 fb ff ff       	call   140001540 <printf>
   1400019ab:	48 8d 0d f8 36 01 00 	lea    0x136f8(%rip),%rcx        # 1400150aa <.rdata+0xaa>
   1400019b2:	e8 89 fb ff ff       	call   140001540 <printf>
   1400019b7:	e8 c4 15 01 00       	call   140012f80 <getch>
   1400019bc:	88 45 ff             	mov    %al,-0x1(%rbp)
   1400019bf:	80 7d ff 31          	cmpb   $0x31,-0x1(%rbp)
   1400019c3:	74 1c                	je     1400019e1 <startMenu+0x6e>
   1400019c5:	e8 b6 15 01 00       	call   140012f80 <getch>
   1400019ca:	88 45 ff             	mov    %al,-0x1(%rbp)
   1400019cd:	80 7d ff 32          	cmpb   $0x32,-0x1(%rbp)
   1400019d1:	74 0e                	je     1400019e1 <startMenu+0x6e>
   1400019d3:	48 8d 0d 5e 36 01 00 	lea    0x1365e(%rip),%rcx        # 140015038 <.rdata+0x38>
   1400019da:	e8 61 fb ff ff       	call   140001540 <printf>
   1400019df:	eb d6                	jmp    1400019b7 <startMenu+0x44>
   1400019e1:	0f b6 45 ff          	movzbl -0x1(%rbp),%eax
   1400019e5:	48 83 c4 30          	add    $0x30,%rsp
   1400019e9:	5d                   	pop    %rbp
   1400019ea:	c3                   	ret    

00000001400019eb <fillMatrixSingleGame>:
   1400019eb:	55                   	push   %rbp
   1400019ec:	53                   	push   %rbx
   1400019ed:	48 83 ec 48          	sub    $0x48,%rsp
   1400019f1:	48 8d 6c 24 40       	lea    0x40(%rsp),%rbp
   1400019f6:	48 89 4d 20          	mov    %rcx,0x20(%rbp)
   1400019fa:	48 89 55 28          	mov    %rdx,0x28(%rbp)
   1400019fe:	4c 89 c3             	mov    %r8,%rbx
   140001a01:	b9 f5 ff ff ff       	mov    $0xfffffff5,%ecx
   140001a06:	48 8b 05 77 8a 01 00 	mov    0x18a77(%rip),%rax        # 14001a484 <__imp_GetStdHandle>
   140001a0d:	ff d0                	call   *%rax
   140001a0f:	48 89 45 e8          	mov    %rax,-0x18(%rbp)
   140001a13:	c7 45 fc 00 00 00 00 	movl   $0x0,-0x4(%rbp)
   140001a1a:	e9 a6 00 00 00       	jmp    140001ac5 <fillMatrixSingleGame+0xda>
   140001a1f:	c7 45 f8 00 00 00 00 	movl   $0x0,-0x8(%rbp)
   140001a26:	e9 8c 00 00 00       	jmp    140001ab7 <fillMatrixSingleGame+0xcc>
   140001a2b:	83 7d fc 00          	cmpl   $0x0,-0x4(%rbp)
   140001a2f:	74 06                	je     140001a37 <fillMatrixSingleGame+0x4c>
   140001a31:	83 7d fc 0e          	cmpl   $0xe,-0x4(%rbp)
   140001a35:	75 26                	jne    140001a5d <fillMatrixSingleGame+0x72>
   140001a37:	8b 45 f8             	mov    -0x8(%rbp),%eax
   140001a3a:	48 63 d0             	movslq %eax,%rdx
   140001a3d:	48 89 d0             	mov    %rdx,%rax
   140001a40:	48 c1 e0 04          	shl    $0x4,%rax
   140001a44:	48 29 d0             	sub    %rdx,%rax
   140001a47:	48 89 c1             	mov    %rax,%rcx
   140001a4a:	48 8b 45 20          	mov    0x20(%rbp),%rax
   140001a4e:	48 8d 14 01          	lea    (%rcx,%rax,1),%rdx
   140001a52:	8b 45 fc             	mov    -0x4(%rbp),%eax
   140001a55:	48 98                	cltq   
   140001a57:	c6 04 02 2d          	movb   $0x2d,(%rdx,%rax,1)
   140001a5b:	eb 56                	jmp    140001ab3 <fillMatrixSingleGame+0xc8>
   140001a5d:	83 7d f8 00          	cmpl   $0x0,-0x8(%rbp)
   140001a61:	74 06                	je     140001a69 <fillMatrixSingleGame+0x7e>
   140001a63:	83 7d f8 0e          	cmpl   $0xe,-0x8(%rbp)
   140001a67:	75 26                	jne    140001a8f <fillMatrixSingleGame+0xa4>
   140001a69:	8b 45 f8             	mov    -0x8(%rbp),%eax
   140001a6c:	48 63 d0             	movslq %eax,%rdx
   140001a6f:	48 89 d0             	mov    %rdx,%rax
   140001a72:	48 c1 e0 04          	shl    $0x4,%rax
   140001a76:	48 29 d0             	sub    %rdx,%rax
   140001a79:	48 89 c1             	mov    %rax,%rcx
   140001a7c:	48 8b 45 20          	mov    0x20(%rbp),%rax
   140001a80:	48 8d 14 01          	lea    (%rcx,%rax,1),%rdx
   140001a84:	8b 45 fc             	mov    -0x4(%rbp),%eax
   140001a87:	48 98                	cltq   
   140001a89:	c6 04 02 7c          	movb   $0x7c,(%rdx,%rax,1)
   140001a8d:	eb 24                	jmp    140001ab3 <fillMatrixSingleGame+0xc8>
   140001a8f:	8b 45 f8             	mov    -0x8(%rbp),%eax
   140001a92:	48 63 d0             	movslq %eax,%rdx
   140001a95:	48 89 d0             	mov    %rdx,%rax
   140001a98:	48 c1 e0 04          	shl    $0x4,%rax
   140001a9c:	48 29 d0             	sub    %rdx,%rax
   140001a9f:	48 89 c1             	mov    %rax,%rcx
   140001aa2:	48 8b 45 20          	mov    0x20(%rbp),%rax
   140001aa6:	48 8d 14 01          	lea    (%rcx,%rax,1),%rdx
   140001aaa:	8b 45 fc             	mov    -0x4(%rbp),%eax
   140001aad:	48 98                	cltq   
   140001aaf:	c6 04 02 20          	movb   $0x20,(%rdx,%rax,1)
   140001ab3:	83 45 f8 01          	addl   $0x1,-0x8(%rbp)
   140001ab7:	83 7d f8 0e          	cmpl   $0xe,-0x8(%rbp)
   140001abb:	0f 8e 6a ff ff ff    	jle    140001a2b <fillMatrixSingleGame+0x40>
   140001ac1:	83 45 fc 01          	addl   $0x1,-0x4(%rbp)
   140001ac5:	83 7d fc 0e          	cmpl   $0xe,-0x4(%rbp)
   140001ac9:	0f 8e 50 ff ff ff    	jle    140001a1f <fillMatrixSingleGame+0x34>
   140001acf:	48 8b 45 28          	mov    0x28(%rbp),%rax
   140001ad3:	0f b6 00             	movzbl (%rax),%eax
   140001ad6:	48 0f be d0          	movsbq %al,%rdx
   140001ada:	48 89 d0             	mov    %rdx,%rax
   140001add:	48 c1 e0 04          	shl    $0x4,%rax
   140001ae1:	48 29 d0             	sub    %rdx,%rax
   140001ae4:	48 89 c1             	mov    %rax,%rcx
   140001ae7:	48 8b 45 20          	mov    0x20(%rbp),%rax
   140001aeb:	48 8d 14 01          	lea    (%rcx,%rax,1),%rdx
   140001aef:	48 8b 45 28          	mov    0x28(%rbp),%rax
   140001af3:	0f b6 40 01          	movzbl 0x1(%rax),%eax
   140001af7:	0f be c0             	movsbl %al,%eax
   140001afa:	48 98                	cltq   
   140001afc:	c6 04 02 40          	movb   $0x40,(%rdx,%rax,1)
   140001b00:	c7 45 f4 00 00 00 00 	movl   $0x0,-0xc(%rbp)
   140001b07:	eb 53                	jmp    140001b5c <fillMatrixSingleGame+0x171>
   140001b09:	48 8b 45 28          	mov    0x28(%rbp),%rax
   140001b0d:	48 8b 50 08          	mov    0x8(%rax),%rdx
   140001b11:	8b 45 f4             	mov    -0xc(%rbp),%eax
   140001b14:	48 98                	cltq   
   140001b16:	48 01 c0             	add    %rax,%rax
   140001b19:	48 01 d0             	add    %rdx,%rax
   140001b1c:	0f b6 00             	movzbl (%rax),%eax
   140001b1f:	48 0f be d0          	movsbq %al,%rdx
   140001b23:	48 89 d0             	mov    %rdx,%rax
   140001b26:	48 c1 e0 04          	shl    $0x4,%rax
   140001b2a:	48 29 d0             	sub    %rdx,%rax
   140001b2d:	48 89 c1             	mov    %rax,%rcx
   140001b30:	48 8b 45 20          	mov    0x20(%rbp),%rax
   140001b34:	48 8d 14 01          	lea    (%rcx,%rax,1),%rdx
   140001b38:	48 8b 45 28          	mov    0x28(%rbp),%rax
   140001b3c:	48 8b 48 08          	mov    0x8(%rax),%rcx
   140001b40:	8b 45 f4             	mov    -0xc(%rbp),%eax
   140001b43:	48 98                	cltq   
   140001b45:	48 01 c0             	add    %rax,%rax
   140001b48:	48 01 c8             	add    %rcx,%rax
   140001b4b:	0f b6 40 01          	movzbl 0x1(%rax),%eax
   140001b4f:	0f be c0             	movsbl %al,%eax
   140001b52:	48 98                	cltq   
   140001b54:	c6 04 02 2a          	movb   $0x2a,(%rdx,%rax,1)
   140001b58:	83 45 f4 01          	addl   $0x1,-0xc(%rbp)
   140001b5c:	8b 45 f4             	mov    -0xc(%rbp),%eax
   140001b5f:	48 63 d0             	movslq %eax,%rdx
   140001b62:	48 8b 45 28          	mov    0x28(%rbp),%rax
   140001b66:	48 8b 40 10          	mov    0x10(%rax),%rax
   140001b6a:	48 39 c2             	cmp    %rax,%rdx
   140001b6d:	72 9a                	jb     140001b09 <fillMatrixSingleGame+0x11e>
   140001b6f:	0f b6 03             	movzbl (%rbx),%eax
   140001b72:	48 0f be d0          	movsbq %al,%rdx
   140001b76:	48 89 d0             	mov    %rdx,%rax
   140001b79:	48 c1 e0 04          	shl    $0x4,%rax
   140001b7d:	48 29 d0             	sub    %rdx,%rax
   140001b80:	48 89 c1             	mov    %rax,%rcx
   140001b83:	48 8b 45 20          	mov    0x20(%rbp),%rax
   140001b87:	48 8d 14 01          	lea    (%rcx,%rax,1),%rdx
   140001b8b:	0f b6 43 01          	movzbl 0x1(%rbx),%eax
   140001b8f:	0f be c0             	movsbl %al,%eax
   140001b92:	48 98                	cltq   
   140001b94:	c6 04 02 6f          	movb   $0x6f,(%rdx,%rax,1)
   140001b98:	90                   	nop
   140001b99:	48 83 c4 48          	add    $0x48,%rsp
   140001b9d:	5b                   	pop    %rbx
   140001b9e:	5d                   	pop    %rbp
   140001b9f:	c3                   	ret    

0000000140001ba0 <fillMatrixAiGame>:
   140001ba0:	55                   	push   %rbp
   140001ba1:	53                   	push   %rbx
   140001ba2:	48 83 ec 18          	sub    $0x18,%rsp
   140001ba6:	48 8d 6c 24 10       	lea    0x10(%rsp),%rbp
   140001bab:	48 89 4d 20          	mov    %rcx,0x20(%rbp)
   140001baf:	48 89 55 28          	mov    %rdx,0x28(%rbp)
   140001bb3:	4c 89 45 30          	mov    %r8,0x30(%rbp)
   140001bb7:	4c 89 cb             	mov    %r9,%rbx
   140001bba:	c7 45 fc 00 00 00 00 	movl   $0x0,-0x4(%rbp)
   140001bc1:	e9 a6 00 00 00       	jmp    140001c6c <fillMatrixAiGame+0xcc>
   140001bc6:	c7 45 f8 00 00 00 00 	movl   $0x0,-0x8(%rbp)
   140001bcd:	e9 8c 00 00 00       	jmp    140001c5e <fillMatrixAiGame+0xbe>
   140001bd2:	83 7d fc 00          	cmpl   $0x0,-0x4(%rbp)
   140001bd6:	74 06                	je     140001bde <fillMatrixAiGame+0x3e>
   140001bd8:	83 7d fc 0e          	cmpl   $0xe,-0x4(%rbp)
   140001bdc:	75 26                	jne    140001c04 <fillMatrixAiGame+0x64>
   140001bde:	8b 45 f8             	mov    -0x8(%rbp),%eax
   140001be1:	48 63 d0             	movslq %eax,%rdx
   140001be4:	48 89 d0             	mov    %rdx,%rax
   140001be7:	48 c1 e0 04          	shl    $0x4,%rax
   140001beb:	48 29 d0             	sub    %rdx,%rax
   140001bee:	48 89 c1             	mov    %rax,%rcx
   140001bf1:	48 8b 45 20          	mov    0x20(%rbp),%rax
   140001bf5:	48 8d 14 01          	lea    (%rcx,%rax,1),%rdx
   140001bf9:	8b 45 fc             	mov    -0x4(%rbp),%eax
   140001bfc:	48 98                	cltq   
   140001bfe:	c6 04 02 2d          	movb   $0x2d,(%rdx,%rax,1)
   140001c02:	eb 56                	jmp    140001c5a <fillMatrixAiGame+0xba>
   140001c04:	83 7d f8 00          	cmpl   $0x0,-0x8(%rbp)
   140001c08:	74 06                	je     140001c10 <fillMatrixAiGame+0x70>
   140001c0a:	83 7d f8 0e          	cmpl   $0xe,-0x8(%rbp)
   140001c0e:	75 26                	jne    140001c36 <fillMatrixAiGame+0x96>
   140001c10:	8b 45 f8             	mov    -0x8(%rbp),%eax
   140001c13:	48 63 d0             	movslq %eax,%rdx
   140001c16:	48 89 d0             	mov    %rdx,%rax
   140001c19:	48 c1 e0 04          	shl    $0x4,%rax
   140001c1d:	48 29 d0             	sub    %rdx,%rax
   140001c20:	48 89 c1             	mov    %rax,%rcx
   140001c23:	48 8b 45 20          	mov    0x20(%rbp),%rax
   140001c27:	48 8d 14 01          	lea    (%rcx,%rax,1),%rdx
   140001c2b:	8b 45 fc             	mov    -0x4(%rbp),%eax
   140001c2e:	48 98                	cltq   
   140001c30:	c6 04 02 7c          	movb   $0x7c,(%rdx,%rax,1)
   140001c34:	eb 24                	jmp    140001c5a <fillMatrixAiGame+0xba>
   140001c36:	8b 45 f8             	mov    -0x8(%rbp),%eax
   140001c39:	48 63 d0             	movslq %eax,%rdx
   140001c3c:	48 89 d0             	mov    %rdx,%rax
   140001c3f:	48 c1 e0 04          	shl    $0x4,%rax
   140001c43:	48 29 d0             	sub    %rdx,%rax
   140001c46:	48 89 c1             	mov    %rax,%rcx
   140001c49:	48 8b 45 20          	mov    0x20(%rbp),%rax
   140001c4d:	48 8d 14 01          	lea    (%rcx,%rax,1),%rdx
   140001c51:	8b 45 fc             	mov    -0x4(%rbp),%eax
   140001c54:	48 98                	cltq   
   140001c56:	c6 04 02 20          	movb   $0x20,(%rdx,%rax,1)
   140001c5a:	83 45 f8 01          	addl   $0x1,-0x8(%rbp)
   140001c5e:	83 7d f8 0e          	cmpl   $0xe,-0x8(%rbp)
   140001c62:	0f 8e 6a ff ff ff    	jle    140001bd2 <fillMatrixAiGame+0x32>
   140001c68:	83 45 fc 01          	addl   $0x1,-0x4(%rbp)
   140001c6c:	83 7d fc 0e          	cmpl   $0xe,-0x4(%rbp)
   140001c70:	0f 8e 50 ff ff ff    	jle    140001bc6 <fillMatrixAiGame+0x26>
   140001c76:	48 8b 45 28          	mov    0x28(%rbp),%rax
   140001c7a:	0f b6 00             	movzbl (%rax),%eax
   140001c7d:	48 0f be d0          	movsbq %al,%rdx
   140001c81:	48 89 d0             	mov    %rdx,%rax
   140001c84:	48 c1 e0 04          	shl    $0x4,%rax
   140001c88:	48 29 d0             	sub    %rdx,%rax
   140001c8b:	48 89 c1             	mov    %rax,%rcx
   140001c8e:	48 8b 45 20          	mov    0x20(%rbp),%rax
   140001c92:	48 8d 14 01          	lea    (%rcx,%rax,1),%rdx
   140001c96:	48 8b 45 28          	mov    0x28(%rbp),%rax
   140001c9a:	0f b6 40 01          	movzbl 0x1(%rax),%eax
   140001c9e:	0f be c0             	movsbl %al,%eax
   140001ca1:	48 98                	cltq   
   140001ca3:	c6 04 02 40          	movb   $0x40,(%rdx,%rax,1)
   140001ca7:	c7 45 f4 00 00 00 00 	movl   $0x0,-0xc(%rbp)
   140001cae:	eb 53                	jmp    140001d03 <fillMatrixAiGame+0x163>
   140001cb0:	48 8b 45 28          	mov    0x28(%rbp),%rax
   140001cb4:	48 8b 50 08          	mov    0x8(%rax),%rdx
   140001cb8:	8b 45 f4             	mov    -0xc(%rbp),%eax
   140001cbb:	48 98                	cltq   
   140001cbd:	48 01 c0             	add    %rax,%rax
   140001cc0:	48 01 d0             	add    %rdx,%rax
   140001cc3:	0f b6 00             	movzbl (%rax),%eax
   140001cc6:	48 0f be d0          	movsbq %al,%rdx
   140001cca:	48 89 d0             	mov    %rdx,%rax
   140001ccd:	48 c1 e0 04          	shl    $0x4,%rax
   140001cd1:	48 29 d0             	sub    %rdx,%rax
   140001cd4:	48 89 c1             	mov    %rax,%rcx
   140001cd7:	48 8b 45 20          	mov    0x20(%rbp),%rax
   140001cdb:	48 8d 14 01          	lea    (%rcx,%rax,1),%rdx
   140001cdf:	48 8b 45 28          	mov    0x28(%rbp),%rax
   140001ce3:	48 8b 48 08          	mov    0x8(%rax),%rcx
   140001ce7:	8b 45 f4             	mov    -0xc(%rbp),%eax
   140001cea:	48 98                	cltq   
   140001cec:	48 01 c0             	add    %rax,%rax
   140001cef:	48 01 c8             	add    %rcx,%rax
   140001cf2:	0f b6 40 01          	movzbl 0x1(%rax),%eax
   140001cf6:	0f be c0             	movsbl %al,%eax
   140001cf9:	48 98                	cltq   
   140001cfb:	c6 04 02 2a          	movb   $0x2a,(%rdx,%rax,1)
   140001cff:	83 45 f4 01          	addl   $0x1,-0xc(%rbp)
   140001d03:	8b 45 f4             	mov    -0xc(%rbp),%eax
   140001d06:	48 63 d0             	movslq %eax,%rdx
   140001d09:	48 8b 45 28          	mov    0x28(%rbp),%rax
   140001d0d:	48 8b 40 10          	mov    0x10(%rax),%rax
   140001d11:	48 39 c2             	cmp    %rax,%rdx
   140001d14:	72 9a                	jb     140001cb0 <fillMatrixAiGame+0x110>
   140001d16:	48 8b 45 30          	mov    0x30(%rbp),%rax
   140001d1a:	0f b6 00             	movzbl (%rax),%eax
   140001d1d:	48 0f be d0          	movsbq %al,%rdx
   140001d21:	48 89 d0             	mov    %rdx,%rax
   140001d24:	48 c1 e0 04          	shl    $0x4,%rax
   140001d28:	48 29 d0             	sub    %rdx,%rax
   140001d2b:	48 89 c1             	mov    %rax,%rcx
   140001d2e:	48 8b 45 20          	mov    0x20(%rbp),%rax
   140001d32:	48 8d 14 01          	lea    (%rcx,%rax,1),%rdx
   140001d36:	48 8b 45 30          	mov    0x30(%rbp),%rax
   140001d3a:	0f b6 40 01          	movzbl 0x1(%rax),%eax
   140001d3e:	0f be c0             	movsbl %al,%eax
   140001d41:	48 98                	cltq   
   140001d43:	c6 04 02 23          	movb   $0x23,(%rdx,%rax,1)
   140001d47:	c7 45 f0 00 00 00 00 	movl   $0x0,-0x10(%rbp)
   140001d4e:	eb 53                	jmp    140001da3 <fillMatrixAiGame+0x203>
   140001d50:	48 8b 45 30          	mov    0x30(%rbp),%rax
   140001d54:	48 8b 50 08          	mov    0x8(%rax),%rdx
   140001d58:	8b 45 f0             	mov    -0x10(%rbp),%eax
   140001d5b:	48 98                	cltq   
   140001d5d:	48 01 c0             	add    %rax,%rax
   140001d60:	48 01 d0             	add    %rdx,%rax
   140001d63:	0f b6 00             	movzbl (%rax),%eax
   140001d66:	48 0f be d0          	movsbq %al,%rdx
   140001d6a:	48 89 d0             	mov    %rdx,%rax
   140001d6d:	48 c1 e0 04          	shl    $0x4,%rax
   140001d71:	48 29 d0             	sub    %rdx,%rax
   140001d74:	48 89 c1             	mov    %rax,%rcx
   140001d77:	48 8b 45 20          	mov    0x20(%rbp),%rax
   140001d7b:	48 8d 14 01          	lea    (%rcx,%rax,1),%rdx
   140001d7f:	48 8b 45 30          	mov    0x30(%rbp),%rax
   140001d83:	48 8b 48 08          	mov    0x8(%rax),%rcx
   140001d87:	8b 45 f0             	mov    -0x10(%rbp),%eax
   140001d8a:	48 98                	cltq   
   140001d8c:	48 01 c0             	add    %rax,%rax
   140001d8f:	48 01 c8             	add    %rcx,%rax
   140001d92:	0f b6 40 01          	movzbl 0x1(%rax),%eax
   140001d96:	0f be c0             	movsbl %al,%eax
   140001d99:	48 98                	cltq   
   140001d9b:	c6 04 02 2e          	movb   $0x2e,(%rdx,%rax,1)
   140001d9f:	83 45 f0 01          	addl   $0x1,-0x10(%rbp)
   140001da3:	8b 45 f0             	mov    -0x10(%rbp),%eax
   140001da6:	48 63 d0             	movslq %eax,%rdx
   140001da9:	48 8b 45 30          	mov    0x30(%rbp),%rax
   140001dad:	48 8b 40 10          	mov    0x10(%rax),%rax
   140001db1:	48 39 c2             	cmp    %rax,%rdx
   140001db4:	72 9a                	jb     140001d50 <fillMatrixAiGame+0x1b0>
   140001db6:	0f b6 03             	movzbl (%rbx),%eax
   140001db9:	48 0f be d0          	movsbq %al,%rdx
   140001dbd:	48 89 d0             	mov    %rdx,%rax
   140001dc0:	48 c1 e0 04          	shl    $0x4,%rax
   140001dc4:	48 29 d0             	sub    %rdx,%rax
   140001dc7:	48 89 c1             	mov    %rax,%rcx
   140001dca:	48 8b 45 20          	mov    0x20(%rbp),%rax
   140001dce:	48 8d 14 01          	lea    (%rcx,%rax,1),%rdx
   140001dd2:	0f b6 43 01          	movzbl 0x1(%rbx),%eax
   140001dd6:	0f be c0             	movsbl %al,%eax
   140001dd9:	48 98                	cltq   
   140001ddb:	c6 04 02 6f          	movb   $0x6f,(%rdx,%rax,1)
   140001ddf:	90                   	nop
   140001de0:	48 83 c4 18          	add    $0x18,%rsp
   140001de4:	5b                   	pop    %rbx
   140001de5:	5d                   	pop    %rbp
   140001de6:	c3                   	ret    

0000000140001de7 <printMatrixSingleGame>:
   140001de7:	55                   	push   %rbp
   140001de8:	53                   	push   %rbx
   140001de9:	48 83 ec 38          	sub    $0x38,%rsp
   140001ded:	48 8d 6c 24 30       	lea    0x30(%rsp),%rbp
   140001df2:	48 89 4d 20          	mov    %rcx,0x20(%rbp)
   140001df6:	48 89 55 28          	mov    %rdx,0x28(%rbp)
   140001dfa:	4c 89 c3             	mov    %r8,%rbx
   140001dfd:	b9 f5 ff ff ff       	mov    $0xfffffff5,%ecx
   140001e02:	48 8b 05 7b 86 01 00 	mov    0x1867b(%rip),%rax        # 14001a484 <__imp_GetStdHandle>
   140001e09:	ff d0                	call   *%rax
   140001e0b:	48 89 45 f0          	mov    %rax,-0x10(%rbp)
   140001e0f:	c7 45 fc 00 00 00 00 	movl   $0x0,-0x4(%rbp)
   140001e16:	e9 62 01 00 00       	jmp    140001f7d <printMatrixSingleGame+0x196>
   140001e1b:	c7 45 f8 00 00 00 00 	movl   $0x0,-0x8(%rbp)
   140001e22:	e9 3c 01 00 00       	jmp    140001f63 <printMatrixSingleGame+0x17c>
   140001e27:	0f b6 43 01          	movzbl 0x1(%rbx),%eax
   140001e2b:	0f be c0             	movsbl %al,%eax
   140001e2e:	39 45 fc             	cmp    %eax,-0x4(%rbp)
   140001e31:	75 6f                	jne    140001ea2 <printMatrixSingleGame+0xbb>
   140001e33:	0f b6 03             	movzbl (%rbx),%eax
   140001e36:	0f be c0             	movsbl %al,%eax
   140001e39:	39 45 f8             	cmp    %eax,-0x8(%rbp)
   140001e3c:	75 64                	jne    140001ea2 <printMatrixSingleGame+0xbb>
   140001e3e:	48 8b 45 f0          	mov    -0x10(%rbp),%rax
   140001e42:	ba 02 00 00 00       	mov    $0x2,%edx
   140001e47:	48 89 c1             	mov    %rax,%rcx
   140001e4a:	48 8b 05 db 86 01 00 	mov    0x186db(%rip),%rax        # 14001a52c <__imp_SetConsoleTextAttribute>
   140001e51:	ff d0                	call   *%rax
   140001e53:	8b 45 f8             	mov    -0x8(%rbp),%eax
   140001e56:	48 63 d0             	movslq %eax,%rdx
   140001e59:	48 89 d0             	mov    %rdx,%rax
   140001e5c:	48 c1 e0 04          	shl    $0x4,%rax
   140001e60:	48 29 d0             	sub    %rdx,%rax
   140001e63:	48 89 c1             	mov    %rax,%rcx
   140001e66:	48 8b 45 20          	mov    0x20(%rbp),%rax
   140001e6a:	48 8d 14 01          	lea    (%rcx,%rax,1),%rdx
   140001e6e:	8b 45 fc             	mov    -0x4(%rbp),%eax
   140001e71:	48 98                	cltq   
   140001e73:	0f b6 04 02          	movzbl (%rdx,%rax,1),%eax
   140001e77:	0f be c0             	movsbl %al,%eax
   140001e7a:	89 c2                	mov    %eax,%edx
   140001e7c:	48 8d 0d 3d 32 01 00 	lea    0x1323d(%rip),%rcx        # 1400150c0 <.rdata+0xc0>
   140001e83:	e8 b8 f6 ff ff       	call   140001540 <printf>
   140001e88:	48 8b 45 f0          	mov    -0x10(%rbp),%rax
   140001e8c:	ba 07 00 00 00       	mov    $0x7,%edx
   140001e91:	48 89 c1             	mov    %rax,%rcx
   140001e94:	48 8b 05 91 86 01 00 	mov    0x18691(%rip),%rax        # 14001a52c <__imp_SetConsoleTextAttribute>
   140001e9b:	ff d0                	call   *%rax
   140001e9d:	e9 bd 00 00 00       	jmp    140001f5f <printMatrixSingleGame+0x178>
   140001ea2:	48 8b 45 28          	mov    0x28(%rbp),%rax
   140001ea6:	0f b6 40 01          	movzbl 0x1(%rax),%eax
   140001eaa:	0f be c0             	movsbl %al,%eax
   140001ead:	39 45 fc             	cmp    %eax,-0x4(%rbp)
   140001eb0:	75 78                	jne    140001f2a <printMatrixSingleGame+0x143>
   140001eb2:	48 8b 45 28          	mov    0x28(%rbp),%rax
   140001eb6:	0f b6 00             	movzbl (%rax),%eax
   140001eb9:	0f be c0             	movsbl %al,%eax
   140001ebc:	39 45 f8             	cmp    %eax,-0x8(%rbp)
   140001ebf:	75 69                	jne    140001f2a <printMatrixSingleGame+0x143>
   140001ec1:	48 8b 45 28          	mov    0x28(%rbp),%rax
   140001ec5:	0f b6 40 03          	movzbl 0x3(%rax),%eax
   140001ec9:	66 98                	cbtw   
   140001ecb:	0f b7 d0             	movzwl %ax,%edx
   140001ece:	48 8b 45 f0          	mov    -0x10(%rbp),%rax
   140001ed2:	48 89 c1             	mov    %rax,%rcx
   140001ed5:	48 8b 05 50 86 01 00 	mov    0x18650(%rip),%rax        # 14001a52c <__imp_SetConsoleTextAttribute>
   140001edc:	ff d0                	call   *%rax
   140001ede:	8b 45 f8             	mov    -0x8(%rbp),%eax
   140001ee1:	48 63 d0             	movslq %eax,%rdx
   140001ee4:	48 89 d0             	mov    %rdx,%rax
   140001ee7:	48 c1 e0 04          	shl    $0x4,%rax
   140001eeb:	48 29 d0             	sub    %rdx,%rax
   140001eee:	48 89 c1             	mov    %rax,%rcx
   140001ef1:	48 8b 45 20          	mov    0x20(%rbp),%rax
   140001ef5:	48 8d 14 01          	lea    (%rcx,%rax,1),%rdx
   140001ef9:	8b 45 fc             	mov    -0x4(%rbp),%eax
   140001efc:	48 98                	cltq   
   140001efe:	0f b6 04 02          	movzbl (%rdx,%rax,1),%eax
   140001f02:	0f be c0             	movsbl %al,%eax
   140001f05:	89 c2                	mov    %eax,%edx
   140001f07:	48 8d 0d b2 31 01 00 	lea    0x131b2(%rip),%rcx        # 1400150c0 <.rdata+0xc0>
   140001f0e:	e8 2d f6 ff ff       	call   140001540 <printf>
   140001f13:	48 8b 45 f0          	mov    -0x10(%rbp),%rax
   140001f17:	ba 07 00 00 00       	mov    $0x7,%edx
   140001f1c:	48 89 c1             	mov    %rax,%rcx
   140001f1f:	48 8b 05 06 86 01 00 	mov    0x18606(%rip),%rax        # 14001a52c <__imp_SetConsoleTextAttribute>
   140001f26:	ff d0                	call   *%rax
   140001f28:	eb 35                	jmp    140001f5f <printMatrixSingleGame+0x178>
   140001f2a:	8b 45 f8             	mov    -0x8(%rbp),%eax
   140001f2d:	48 63 d0             	movslq %eax,%rdx
   140001f30:	48 89 d0             	mov    %rdx,%rax
   140001f33:	48 c1 e0 04          	shl    $0x4,%rax
   140001f37:	48 29 d0             	sub    %rdx,%rax
   140001f3a:	48 89 c1             	mov    %rax,%rcx
   140001f3d:	48 8b 45 20          	mov    0x20(%rbp),%rax
   140001f41:	48 8d 14 01          	lea    (%rcx,%rax,1),%rdx
   140001f45:	8b 45 fc             	mov    -0x4(%rbp),%eax
   140001f48:	48 98                	cltq   
   140001f4a:	0f b6 04 02          	movzbl (%rdx,%rax,1),%eax
   140001f4e:	0f be c0             	movsbl %al,%eax
   140001f51:	89 c2                	mov    %eax,%edx
   140001f53:	48 8d 0d 66 31 01 00 	lea    0x13166(%rip),%rcx        # 1400150c0 <.rdata+0xc0>
   140001f5a:	e8 e1 f5 ff ff       	call   140001540 <printf>
   140001f5f:	83 45 f8 01          	addl   $0x1,-0x8(%rbp)
   140001f63:	83 7d f8 0e          	cmpl   $0xe,-0x8(%rbp)
   140001f67:	0f 8e ba fe ff ff    	jle    140001e27 <printMatrixSingleGame+0x40>
   140001f6d:	48 8d 0d 4f 31 01 00 	lea    0x1314f(%rip),%rcx        # 1400150c3 <.rdata+0xc3>
   140001f74:	e8 c7 f5 ff ff       	call   140001540 <printf>
   140001f79:	83 45 fc 01          	addl   $0x1,-0x4(%rbp)
   140001f7d:	83 7d fc 0e          	cmpl   $0xe,-0x4(%rbp)
   140001f81:	0f 8e 94 fe ff ff    	jle    140001e1b <printMatrixSingleGame+0x34>
   140001f87:	90                   	nop
   140001f88:	90                   	nop
   140001f89:	48 83 c4 38          	add    $0x38,%rsp
   140001f8d:	5b                   	pop    %rbx
   140001f8e:	5d                   	pop    %rbp
   140001f8f:	c3                   	ret    

0000000140001f90 <printMatrixAiGame>:
   140001f90:	55                   	push   %rbp
   140001f91:	53                   	push   %rbx
   140001f92:	48 83 ec 38          	sub    $0x38,%rsp
   140001f96:	48 8d 6c 24 30       	lea    0x30(%rsp),%rbp
   140001f9b:	48 89 4d 20          	mov    %rcx,0x20(%rbp)
   140001f9f:	48 89 55 28          	mov    %rdx,0x28(%rbp)
   140001fa3:	4c 89 45 30          	mov    %r8,0x30(%rbp)
   140001fa7:	4c 89 cb             	mov    %r9,%rbx
   140001faa:	b9 f5 ff ff ff       	mov    $0xfffffff5,%ecx
   140001faf:	48 8b 05 ce 84 01 00 	mov    0x184ce(%rip),%rax        # 14001a484 <__imp_GetStdHandle>
   140001fb6:	ff d0                	call   *%rax
   140001fb8:	48 89 45 f0          	mov    %rax,-0x10(%rbp)
   140001fbc:	c7 45 fc 00 00 00 00 	movl   $0x0,-0x4(%rbp)
   140001fc3:	e9 ed 01 00 00       	jmp    1400021b5 <printMatrixAiGame+0x225>
   140001fc8:	c7 45 f8 00 00 00 00 	movl   $0x0,-0x8(%rbp)
   140001fcf:	e9 c7 01 00 00       	jmp    14000219b <printMatrixAiGame+0x20b>
   140001fd4:	0f b6 43 01          	movzbl 0x1(%rbx),%eax
   140001fd8:	0f be c0             	movsbl %al,%eax
   140001fdb:	39 45 fc             	cmp    %eax,-0x4(%rbp)
   140001fde:	75 6f                	jne    14000204f <printMatrixAiGame+0xbf>
   140001fe0:	0f b6 03             	movzbl (%rbx),%eax
   140001fe3:	0f be c0             	movsbl %al,%eax
   140001fe6:	39 45 f8             	cmp    %eax,-0x8(%rbp)
   140001fe9:	75 64                	jne    14000204f <printMatrixAiGame+0xbf>
   140001feb:	48 8b 45 f0          	mov    -0x10(%rbp),%rax
   140001fef:	ba 02 00 00 00       	mov    $0x2,%edx
   140001ff4:	48 89 c1             	mov    %rax,%rcx
   140001ff7:	48 8b 05 2e 85 01 00 	mov    0x1852e(%rip),%rax        # 14001a52c <__imp_SetConsoleTextAttribute>
   140001ffe:	ff d0                	call   *%rax
   140002000:	8b 45 f8             	mov    -0x8(%rbp),%eax
   140002003:	48 63 d0             	movslq %eax,%rdx
   140002006:	48 89 d0             	mov    %rdx,%rax
   140002009:	48 c1 e0 04          	shl    $0x4,%rax
   14000200d:	48 29 d0             	sub    %rdx,%rax
   140002010:	48 89 c1             	mov    %rax,%rcx
   140002013:	48 8b 45 20          	mov    0x20(%rbp),%rax
   140002017:	48 8d 14 01          	lea    (%rcx,%rax,1),%rdx
   14000201b:	8b 45 fc             	mov    -0x4(%rbp),%eax
   14000201e:	48 98                	cltq   
   140002020:	0f b6 04 02          	movzbl (%rdx,%rax,1),%eax
   140002024:	0f be c0             	movsbl %al,%eax
   140002027:	89 c2                	mov    %eax,%edx
   140002029:	48 8d 0d 90 30 01 00 	lea    0x13090(%rip),%rcx        # 1400150c0 <.rdata+0xc0>
   140002030:	e8 0b f5 ff ff       	call   140001540 <printf>
   140002035:	48 8b 45 f0          	mov    -0x10(%rbp),%rax
   140002039:	ba 07 00 00 00       	mov    $0x7,%edx
   14000203e:	48 89 c1             	mov    %rax,%rcx
   140002041:	48 8b 05 e4 84 01 00 	mov    0x184e4(%rip),%rax        # 14001a52c <__imp_SetConsoleTextAttribute>
   140002048:	ff d0                	call   *%rax
   14000204a:	e9 48 01 00 00       	jmp    140002197 <printMatrixAiGame+0x207>
   14000204f:	48 8b 45 28          	mov    0x28(%rbp),%rax
   140002053:	0f b6 40 01          	movzbl 0x1(%rax),%eax
   140002057:	0f be c0             	movsbl %al,%eax
   14000205a:	39 45 fc             	cmp    %eax,-0x4(%rbp)
   14000205d:	75 7b                	jne    1400020da <printMatrixAiGame+0x14a>
   14000205f:	48 8b 45 28          	mov    0x28(%rbp),%rax
   140002063:	0f b6 00             	movzbl (%rax),%eax
   140002066:	0f be c0             	movsbl %al,%eax
   140002069:	39 45 f8             	cmp    %eax,-0x8(%rbp)
   14000206c:	75 6c                	jne    1400020da <printMatrixAiGame+0x14a>
   14000206e:	48 8b 45 28          	mov    0x28(%rbp),%rax
   140002072:	0f b6 40 03          	movzbl 0x3(%rax),%eax
   140002076:	66 98                	cbtw   
   140002078:	0f b7 d0             	movzwl %ax,%edx
   14000207b:	48 8b 45 f0          	mov    -0x10(%rbp),%rax
   14000207f:	48 89 c1             	mov    %rax,%rcx
   140002082:	48 8b 05 a3 84 01 00 	mov    0x184a3(%rip),%rax        # 14001a52c <__imp_SetConsoleTextAttribute>
   140002089:	ff d0                	call   *%rax
   14000208b:	8b 45 f8             	mov    -0x8(%rbp),%eax
   14000208e:	48 63 d0             	movslq %eax,%rdx
   140002091:	48 89 d0             	mov    %rdx,%rax
   140002094:	48 c1 e0 04          	shl    $0x4,%rax
   140002098:	48 29 d0             	sub    %rdx,%rax
   14000209b:	48 89 c1             	mov    %rax,%rcx
   14000209e:	48 8b 45 20          	mov    0x20(%rbp),%rax
   1400020a2:	48 8d 14 01          	lea    (%rcx,%rax,1),%rdx
   1400020a6:	8b 45 fc             	mov    -0x4(%rbp),%eax
   1400020a9:	48 98                	cltq   
   1400020ab:	0f b6 04 02          	movzbl (%rdx,%rax,1),%eax
   1400020af:	0f be c0             	movsbl %al,%eax
   1400020b2:	89 c2                	mov    %eax,%edx
   1400020b4:	48 8d 0d 05 30 01 00 	lea    0x13005(%rip),%rcx        # 1400150c0 <.rdata+0xc0>
   1400020bb:	e8 80 f4 ff ff       	call   140001540 <printf>
   1400020c0:	48 8b 45 f0          	mov    -0x10(%rbp),%rax
   1400020c4:	ba 07 00 00 00       	mov    $0x7,%edx
   1400020c9:	48 89 c1             	mov    %rax,%rcx
   1400020cc:	48 8b 05 59 84 01 00 	mov    0x18459(%rip),%rax        # 14001a52c <__imp_SetConsoleTextAttribute>
   1400020d3:	ff d0                	call   *%rax
   1400020d5:	e9 bd 00 00 00       	jmp    140002197 <printMatrixAiGame+0x207>
   1400020da:	48 8b 45 30          	mov    0x30(%rbp),%rax
   1400020de:	0f b6 40 01          	movzbl 0x1(%rax),%eax
   1400020e2:	0f be c0             	movsbl %al,%eax
   1400020e5:	39 45 fc             	cmp    %eax,-0x4(%rbp)
   1400020e8:	75 78                	jne    140002162 <printMatrixAiGame+0x1d2>
   1400020ea:	48 8b 45 30          	mov    0x30(%rbp),%rax
   1400020ee:	0f b6 00             	movzbl (%rax),%eax
   1400020f1:	0f be c0             	movsbl %al,%eax
   1400020f4:	39 45 f8             	cmp    %eax,-0x8(%rbp)
   1400020f7:	75 69                	jne    140002162 <printMatrixAiGame+0x1d2>
   1400020f9:	48 8b 45 30          	mov    0x30(%rbp),%rax
   1400020fd:	0f b6 40 03          	movzbl 0x3(%rax),%eax
   140002101:	66 98                	cbtw   
   140002103:	0f b7 d0             	movzwl %ax,%edx
   140002106:	48 8b 45 f0          	mov    -0x10(%rbp),%rax
   14000210a:	48 89 c1             	mov    %rax,%rcx
   14000210d:	48 8b 05 18 84 01 00 	mov    0x18418(%rip),%rax        # 14001a52c <__imp_SetConsoleTextAttribute>
   140002114:	ff d0                	call   *%rax
   140002116:	8b 45 f8             	mov    -0x8(%rbp),%eax
   140002119:	48 63 d0             	movslq %eax,%rdx
   14000211c:	48 89 d0             	mov    %rdx,%rax
   14000211f:	48 c1 e0 04          	shl    $0x4,%rax
   140002123:	48 29 d0             	sub    %rdx,%rax
   140002126:	48 89 c1             	mov    %rax,%rcx
   140002129:	48 8b 45 20          	mov    0x20(%rbp),%rax
   14000212d:	48 8d 14 01          	lea    (%rcx,%rax,1),%rdx
   140002131:	8b 45 fc             	mov    -0x4(%rbp),%eax
   140002134:	48 98                	cltq   
   140002136:	0f b6 04 02          	movzbl (%rdx,%rax,1),%eax
   14000213a:	0f be c0             	movsbl %al,%eax
   14000213d:	89 c2                	mov    %eax,%edx
   14000213f:	48 8d 0d 7a 2f 01 00 	lea    0x12f7a(%rip),%rcx        # 1400150c0 <.rdata+0xc0>
   140002146:	e8 f5 f3 ff ff       	call   140001540 <printf>
   14000214b:	48 8b 45 f0          	mov    -0x10(%rbp),%rax
   14000214f:	ba 07 00 00 00       	mov    $0x7,%edx
   140002154:	48 89 c1             	mov    %rax,%rcx
   140002157:	48 8b 05 ce 83 01 00 	mov    0x183ce(%rip),%rax        # 14001a52c <__imp_SetConsoleTextAttribute>
   14000215e:	ff d0                	call   *%rax
   140002160:	eb 35                	jmp    140002197 <printMatrixAiGame+0x207>
   140002162:	8b 45 f8             	mov    -0x8(%rbp),%eax
   140002165:	48 63 d0             	movslq %eax,%rdx
   140002168:	48 89 d0             	mov    %rdx,%rax
   14000216b:	48 c1 e0 04          	shl    $0x4,%rax
   14000216f:	48 29 d0             	sub    %rdx,%rax
   140002172:	48 89 c1             	mov    %rax,%rcx
   140002175:	48 8b 45 20          	mov    0x20(%rbp),%rax
   140002179:	48 8d 14 01          	lea    (%rcx,%rax,1),%rdx
   14000217d:	8b 45 fc             	mov    -0x4(%rbp),%eax
   140002180:	48 98                	cltq   
   140002182:	0f b6 04 02          	movzbl (%rdx,%rax,1),%eax
   140002186:	0f be c0             	movsbl %al,%eax
   140002189:	89 c2                	mov    %eax,%edx
   14000218b:	48 8d 0d 2e 2f 01 00 	lea    0x12f2e(%rip),%rcx        # 1400150c0 <.rdata+0xc0>
   140002192:	e8 a9 f3 ff ff       	call   140001540 <printf>
   140002197:	83 45 f8 01          	addl   $0x1,-0x8(%rbp)
   14000219b:	83 7d f8 0e          	cmpl   $0xe,-0x8(%rbp)
   14000219f:	0f 8e 2f fe ff ff    	jle    140001fd4 <printMatrixAiGame+0x44>
   1400021a5:	48 8d 0d 17 2f 01 00 	lea    0x12f17(%rip),%rcx        # 1400150c3 <.rdata+0xc3>
   1400021ac:	e8 8f f3 ff ff       	call   140001540 <printf>
   1400021b1:	83 45 fc 01          	addl   $0x1,-0x4(%rbp)
   1400021b5:	83 7d fc 0e          	cmpl   $0xe,-0x4(%rbp)
   1400021b9:	0f 8e 09 fe ff ff    	jle    140001fc8 <printMatrixAiGame+0x38>
   1400021bf:	90                   	nop
   1400021c0:	90                   	nop
   1400021c1:	48 83 c4 38          	add    $0x38,%rsp
   1400021c5:	5b                   	pop    %rbx
   1400021c6:	5d                   	pop    %rbp
   1400021c7:	c3                   	ret    

00000001400021c8 <grownSnake>:
   1400021c8:	55                   	push   %rbp
   1400021c9:	53                   	push   %rbx
   1400021ca:	48 8d 2c 24          	lea    (%rsp),%rbp
   1400021ce:	48 89 4d 18          	mov    %rcx,0x18(%rbp)
   1400021d2:	48 89 d3             	mov    %rdx,%rbx
   1400021d5:	48 8b 45 18          	mov    0x18(%rbp),%rax
   1400021d9:	0f b6 10             	movzbl (%rax),%edx
   1400021dc:	0f b6 03             	movzbl (%rbx),%eax
   1400021df:	38 c2                	cmp    %al,%dl
   1400021e1:	0f 85 be 00 00 00    	jne    1400022a5 <grownSnake+0xdd>
   1400021e7:	48 8b 45 18          	mov    0x18(%rbp),%rax
   1400021eb:	0f b6 50 01          	movzbl 0x1(%rax),%edx
   1400021ef:	0f b6 43 01          	movzbl 0x1(%rbx),%eax
   1400021f3:	38 c2                	cmp    %al,%dl
   1400021f5:	0f 85 aa 00 00 00    	jne    1400022a5 <grownSnake+0xdd>
   1400021fb:	48 83 7d 18 00       	cmpq   $0x0,0x18(%rbp)
   140002200:	0f 84 9e 00 00 00    	je     1400022a4 <grownSnake+0xdc>
   140002206:	48 8b 45 18          	mov    0x18(%rbp),%rax
   14000220a:	48 8b 40 10          	mov    0x10(%rax),%rax
   14000220e:	48 83 f8 64          	cmp    $0x64,%rax
   140002212:	0f 87 8c 00 00 00    	ja     1400022a4 <grownSnake+0xdc>
   140002218:	48 8b 45 18          	mov    0x18(%rbp),%rax
   14000221c:	48 8b 40 10          	mov    0x10(%rax),%rax
   140002220:	48 8d 50 01          	lea    0x1(%rax),%rdx
   140002224:	48 8b 45 18          	mov    0x18(%rbp),%rax
   140002228:	48 89 50 10          	mov    %rdx,0x10(%rax)
   14000222c:	48 8b 45 18          	mov    0x18(%rbp),%rax
   140002230:	48 8b 50 08          	mov    0x8(%rax),%rdx
   140002234:	48 8b 45 18          	mov    0x18(%rbp),%rax
   140002238:	48 8b 40 10          	mov    0x10(%rax),%rax
   14000223c:	48 01 c0             	add    %rax,%rax
   14000223f:	48 83 e8 04          	sub    $0x4,%rax
   140002243:	48 8d 0c 02          	lea    (%rdx,%rax,1),%rcx
   140002247:	48 8b 45 18          	mov    0x18(%rbp),%rax
   14000224b:	48 8b 50 08          	mov    0x8(%rax),%rdx
   14000224f:	48 8b 45 18          	mov    0x18(%rbp),%rax
   140002253:	48 8b 40 10          	mov    0x10(%rax),%rax
   140002257:	48 01 c0             	add    %rax,%rax
   14000225a:	48 83 e8 02          	sub    $0x2,%rax
   14000225e:	48 01 c2             	add    %rax,%rdx
   140002261:	0f b6 01             	movzbl (%rcx),%eax
   140002264:	88 02                	mov    %al,(%rdx)
   140002266:	48 8b 45 18          	mov    0x18(%rbp),%rax
   14000226a:	48 8b 50 08          	mov    0x8(%rax),%rdx
   14000226e:	48 8b 45 18          	mov    0x18(%rbp),%rax
   140002272:	48 8b 40 10          	mov    0x10(%rax),%rax
   140002276:	48 01 c0             	add    %rax,%rax
   140002279:	48 83 e8 04          	sub    $0x4,%rax
   14000227d:	48 8d 0c 02          	lea    (%rdx,%rax,1),%rcx
   140002281:	48 8b 45 18          	mov    0x18(%rbp),%rax
   140002285:	48 8b 50 08          	mov    0x8(%rax),%rdx
   140002289:	48 8b 45 18          	mov    0x18(%rbp),%rax
   14000228d:	48 8b 40 10          	mov    0x10(%rax),%rax
   140002291:	48 01 c0             	add    %rax,%rax
   140002294:	48 83 e8 02          	sub    $0x2,%rax
   140002298:	48 01 c2             	add    %rax,%rdx
   14000229b:	0f b6 41 01          	movzbl 0x1(%rcx),%eax
   14000229f:	88 42 01             	mov    %al,0x1(%rdx)
   1400022a2:	eb 01                	jmp    1400022a5 <grownSnake+0xdd>
   1400022a4:	90                   	nop
   1400022a5:	5b                   	pop    %rbx
   1400022a6:	5d                   	pop    %rbp
   1400022a7:	c3                   	ret    

00000001400022a8 <checkDirection>:
   1400022a8:	55                   	push   %rbp
   1400022a9:	53                   	push   %rbx
   1400022aa:	48 8d 2c 24          	lea    (%rsp),%rbp
   1400022ae:	48 89 cb             	mov    %rcx,%rbx
   1400022b1:	89 55 20             	mov    %edx,0x20(%rbp)
   1400022b4:	83 7d 20 01          	cmpl   $0x1,0x20(%rbp)
   1400022b8:	75 0f                	jne    1400022c9 <checkDirection+0x21>
   1400022ba:	0f b6 43 02          	movzbl 0x2(%rbx),%eax
   1400022be:	3c 03                	cmp    $0x3,%al
   1400022c0:	75 07                	jne    1400022c9 <checkDirection+0x21>
   1400022c2:	b8 00 00 00 00       	mov    $0x0,%eax
   1400022c7:	eb 44                	jmp    14000230d <checkDirection+0x65>
   1400022c9:	83 7d 20 02          	cmpl   $0x2,0x20(%rbp)
   1400022cd:	75 0f                	jne    1400022de <checkDirection+0x36>
   1400022cf:	0f b6 43 02          	movzbl 0x2(%rbx),%eax
   1400022d3:	3c 04                	cmp    $0x4,%al
   1400022d5:	75 07                	jne    1400022de <checkDirection+0x36>
   1400022d7:	b8 00 00 00 00       	mov    $0x0,%eax
   1400022dc:	eb 2f                	jmp    14000230d <checkDirection+0x65>
   1400022de:	83 7d 20 03          	cmpl   $0x3,0x20(%rbp)
   1400022e2:	75 0f                	jne    1400022f3 <checkDirection+0x4b>
   1400022e4:	0f b6 43 02          	movzbl 0x2(%rbx),%eax
   1400022e8:	3c 01                	cmp    $0x1,%al
   1400022ea:	75 07                	jne    1400022f3 <checkDirection+0x4b>
   1400022ec:	b8 00 00 00 00       	mov    $0x0,%eax
   1400022f1:	eb 1a                	jmp    14000230d <checkDirection+0x65>
   1400022f3:	83 7d 20 04          	cmpl   $0x4,0x20(%rbp)
   1400022f7:	75 0f                	jne    140002308 <checkDirection+0x60>
   1400022f9:	0f b6 43 02          	movzbl 0x2(%rbx),%eax
   1400022fd:	3c 02                	cmp    $0x2,%al
   1400022ff:	75 07                	jne    140002308 <checkDirection+0x60>
   140002301:	b8 00 00 00 00       	mov    $0x0,%eax
   140002306:	eb 05                	jmp    14000230d <checkDirection+0x65>
   140002308:	b8 01 00 00 00       	mov    $0x1,%eax
   14000230d:	5b                   	pop    %rbx
   14000230e:	5d                   	pop    %rbp
   14000230f:	c3                   	ret    

0000000140002310 <moveSnake>:
   140002310:	55                   	push   %rbp
   140002311:	53                   	push   %rbx
   140002312:	48 83 ec 18          	sub    $0x18,%rsp
   140002316:	48 8d 6c 24 10       	lea    0x10(%rsp),%rbp
   14000231b:	48 89 4d 20          	mov    %rcx,0x20(%rbp)
   14000231f:	48 89 d3             	mov    %rdx,%rbx
   140002322:	44 89 45 30          	mov    %r8d,0x30(%rbp)
   140002326:	48 8b 43 10          	mov    0x10(%rbx),%rax
   14000232a:	83 e8 01             	sub    $0x1,%eax
   14000232d:	89 45 fc             	mov    %eax,-0x4(%rbp)
   140002330:	eb 2d                	jmp    14000235f <moveSnake+0x4f>
   140002332:	48 8b 53 08          	mov    0x8(%rbx),%rdx
   140002336:	8b 45 fc             	mov    -0x4(%rbp),%eax
   140002339:	48 98                	cltq   
   14000233b:	48 01 c0             	add    %rax,%rax
   14000233e:	48 83 e8 02          	sub    $0x2,%rax
   140002342:	48 01 d0             	add    %rdx,%rax
   140002345:	48 8b 4b 08          	mov    0x8(%rbx),%rcx
   140002349:	8b 55 fc             	mov    -0x4(%rbp),%edx
   14000234c:	48 63 d2             	movslq %edx,%rdx
   14000234f:	48 01 d2             	add    %rdx,%rdx
   140002352:	48 01 ca             	add    %rcx,%rdx
   140002355:	0f b7 00             	movzwl (%rax),%eax
   140002358:	66 89 02             	mov    %ax,(%rdx)
   14000235b:	83 6d fc 01          	subl   $0x1,-0x4(%rbp)
   14000235f:	83 7d fc 00          	cmpl   $0x0,-0x4(%rbp)
   140002363:	7f cd                	jg     140002332 <moveSnake+0x22>
   140002365:	48 8b 43 08          	mov    0x8(%rbx),%rax
   140002369:	0f b6 13             	movzbl (%rbx),%edx
   14000236c:	88 10                	mov    %dl,(%rax)
   14000236e:	48 8b 43 08          	mov    0x8(%rbx),%rax
   140002372:	0f b6 53 01          	movzbl 0x1(%rbx),%edx
   140002376:	88 50 01             	mov    %dl,0x1(%rax)
   140002379:	83 7d 30 01          	cmpl   $0x1,0x30(%rbp)
   14000237d:	75 18                	jne    140002397 <moveSnake+0x87>
   14000237f:	0f b6 03             	movzbl (%rbx),%eax
   140002382:	83 e8 01             	sub    $0x1,%eax
   140002385:	88 03                	mov    %al,(%rbx)
   140002387:	0f b6 03             	movzbl (%rbx),%eax
   14000238a:	84 c0                	test   %al,%al
   14000238c:	79 03                	jns    140002391 <moveSnake+0x81>
   14000238e:	c6 03 0e             	movb   $0xe,(%rbx)
   140002391:	c6 43 02 01          	movb   $0x1,0x2(%rbx)
   140002395:	eb 60                	jmp    1400023f7 <moveSnake+0xe7>
   140002397:	83 7d 30 02          	cmpl   $0x2,0x30(%rbp)
   14000239b:	75 1c                	jne    1400023b9 <moveSnake+0xa9>
   14000239d:	0f b6 43 01          	movzbl 0x1(%rbx),%eax
   1400023a1:	83 e8 01             	sub    $0x1,%eax
   1400023a4:	88 43 01             	mov    %al,0x1(%rbx)
   1400023a7:	0f b6 43 01          	movzbl 0x1(%rbx),%eax
   1400023ab:	84 c0                	test   %al,%al
   1400023ad:	79 04                	jns    1400023b3 <moveSnake+0xa3>
   1400023af:	c6 43 01 0e          	movb   $0xe,0x1(%rbx)
   1400023b3:	c6 43 02 02          	movb   $0x2,0x2(%rbx)
   1400023b7:	eb 3e                	jmp    1400023f7 <moveSnake+0xe7>
   1400023b9:	83 7d 30 03          	cmpl   $0x3,0x30(%rbp)
   1400023bd:	75 18                	jne    1400023d7 <moveSnake+0xc7>
   1400023bf:	0f b6 03             	movzbl (%rbx),%eax
   1400023c2:	83 c0 01             	add    $0x1,%eax
   1400023c5:	88 03                	mov    %al,(%rbx)
   1400023c7:	0f b6 03             	movzbl (%rbx),%eax
   1400023ca:	3c 0e                	cmp    $0xe,%al
   1400023cc:	7e 03                	jle    1400023d1 <moveSnake+0xc1>
   1400023ce:	c6 03 00             	movb   $0x0,(%rbx)
   1400023d1:	c6 43 02 03          	movb   $0x3,0x2(%rbx)
   1400023d5:	eb 20                	jmp    1400023f7 <moveSnake+0xe7>
   1400023d7:	83 7d 30 04          	cmpl   $0x4,0x30(%rbp)
   1400023db:	75 1a                	jne    1400023f7 <moveSnake+0xe7>
   1400023dd:	0f b6 43 01          	movzbl 0x1(%rbx),%eax
   1400023e1:	83 c0 01             	add    $0x1,%eax
   1400023e4:	88 43 01             	mov    %al,0x1(%rbx)
   1400023e7:	0f b6 43 01          	movzbl 0x1(%rbx),%eax
   1400023eb:	3c 0e                	cmp    $0xe,%al
   1400023ed:	7e 04                	jle    1400023f3 <moveSnake+0xe3>
   1400023ef:	c6 43 01 00          	movb   $0x0,0x1(%rbx)
   1400023f3:	c6 43 02 04          	movb   $0x4,0x2(%rbx)
   1400023f7:	48 8b 4d 20          	mov    0x20(%rbp),%rcx
   1400023fb:	48 8b 03             	mov    (%rbx),%rax
   1400023fe:	48 8b 53 08          	mov    0x8(%rbx),%rdx
   140002402:	48 89 01             	mov    %rax,(%rcx)
   140002405:	48 89 51 08          	mov    %rdx,0x8(%rcx)
   140002409:	48 8b 43 10          	mov    0x10(%rbx),%rax
   14000240d:	48 89 41 10          	mov    %rax,0x10(%rcx)
   140002411:	48 8b 45 20          	mov    0x20(%rbp),%rax
   140002415:	48 83 c4 18          	add    $0x18,%rsp
   140002419:	5b                   	pop    %rbx
   14000241a:	5d                   	pop    %rbp
   14000241b:	c3                   	ret    

000000014000241c <moveSnakeII>:
   14000241c:	55                   	push   %rbp
   14000241d:	53                   	push   %rbx
   14000241e:	48 83 ec 18          	sub    $0x18,%rsp
   140002422:	48 8d 6c 24 10       	lea    0x10(%rsp),%rbp
   140002427:	48 89 4d 20          	mov    %rcx,0x20(%rbp)
   14000242b:	48 89 d3             	mov    %rdx,%rbx
   14000242e:	48 8b 43 10          	mov    0x10(%rbx),%rax
   140002432:	83 e8 01             	sub    $0x1,%eax
   140002435:	89 45 fc             	mov    %eax,-0x4(%rbp)
   140002438:	eb 2d                	jmp    140002467 <moveSnakeII+0x4b>
   14000243a:	48 8b 53 08          	mov    0x8(%rbx),%rdx
   14000243e:	8b 45 fc             	mov    -0x4(%rbp),%eax
   140002441:	48 98                	cltq   
   140002443:	48 01 c0             	add    %rax,%rax
   140002446:	48 83 e8 02          	sub    $0x2,%rax
   14000244a:	48 01 d0             	add    %rdx,%rax
   14000244d:	48 8b 4b 08          	mov    0x8(%rbx),%rcx
   140002451:	8b 55 fc             	mov    -0x4(%rbp),%edx
   140002454:	48 63 d2             	movslq %edx,%rdx
   140002457:	48 01 d2             	add    %rdx,%rdx
   14000245a:	48 01 ca             	add    %rcx,%rdx
   14000245d:	0f b7 00             	movzwl (%rax),%eax
   140002460:	66 89 02             	mov    %ax,(%rdx)
   140002463:	83 6d fc 01          	subl   $0x1,-0x4(%rbp)
   140002467:	83 7d fc 00          	cmpl   $0x0,-0x4(%rbp)
   14000246b:	7f cd                	jg     14000243a <moveSnakeII+0x1e>
   14000246d:	48 8b 43 08          	mov    0x8(%rbx),%rax
   140002471:	0f b6 13             	movzbl (%rbx),%edx
   140002474:	88 10                	mov    %dl,(%rax)
   140002476:	48 8b 43 08          	mov    0x8(%rbx),%rax
   14000247a:	0f b6 53 01          	movzbl 0x1(%rbx),%edx
   14000247e:	88 50 01             	mov    %dl,0x1(%rax)
   140002481:	0f b6 43 02          	movzbl 0x2(%rbx),%eax
   140002485:	3c 01                	cmp    $0x1,%al
   140002487:	75 18                	jne    1400024a1 <moveSnakeII+0x85>
   140002489:	0f b6 03             	movzbl (%rbx),%eax
   14000248c:	83 e8 01             	sub    $0x1,%eax
   14000248f:	88 03                	mov    %al,(%rbx)
   140002491:	0f b6 03             	movzbl (%rbx),%eax
   140002494:	84 c0                	test   %al,%al
   140002496:	79 03                	jns    14000249b <moveSnakeII+0x7f>
   140002498:	c6 03 0e             	movb   $0xe,(%rbx)
   14000249b:	c6 43 02 01          	movb   $0x1,0x2(%rbx)
   14000249f:	eb 66                	jmp    140002507 <moveSnakeII+0xeb>
   1400024a1:	0f b6 43 02          	movzbl 0x2(%rbx),%eax
   1400024a5:	3c 02                	cmp    $0x2,%al
   1400024a7:	75 1c                	jne    1400024c5 <moveSnakeII+0xa9>
   1400024a9:	0f b6 43 01          	movzbl 0x1(%rbx),%eax
   1400024ad:	83 e8 01             	sub    $0x1,%eax
   1400024b0:	88 43 01             	mov    %al,0x1(%rbx)
   1400024b3:	0f b6 43 01          	movzbl 0x1(%rbx),%eax
   1400024b7:	84 c0                	test   %al,%al
   1400024b9:	79 04                	jns    1400024bf <moveSnakeII+0xa3>
   1400024bb:	c6 43 01 0e          	movb   $0xe,0x1(%rbx)
   1400024bf:	c6 43 02 02          	movb   $0x2,0x2(%rbx)
   1400024c3:	eb 42                	jmp    140002507 <moveSnakeII+0xeb>
   1400024c5:	0f b6 43 02          	movzbl 0x2(%rbx),%eax
   1400024c9:	3c 03                	cmp    $0x3,%al
   1400024cb:	75 18                	jne    1400024e5 <moveSnakeII+0xc9>
   1400024cd:	0f b6 03             	movzbl (%rbx),%eax
   1400024d0:	83 c0 01             	add    $0x1,%eax
   1400024d3:	88 03                	mov    %al,(%rbx)
   1400024d5:	0f b6 03             	movzbl (%rbx),%eax
   1400024d8:	3c 0e                	cmp    $0xe,%al
   1400024da:	7e 03                	jle    1400024df <moveSnakeII+0xc3>
   1400024dc:	c6 03 00             	movb   $0x0,(%rbx)
   1400024df:	c6 43 02 03          	movb   $0x3,0x2(%rbx)
   1400024e3:	eb 22                	jmp    140002507 <moveSnakeII+0xeb>
   1400024e5:	0f b6 43 02          	movzbl 0x2(%rbx),%eax
   1400024e9:	3c 04                	cmp    $0x4,%al
   1400024eb:	75 1a                	jne    140002507 <moveSnakeII+0xeb>
   1400024ed:	0f b6 43 01          	movzbl 0x1(%rbx),%eax
   1400024f1:	83 c0 01             	add    $0x1,%eax
   1400024f4:	88 43 01             	mov    %al,0x1(%rbx)
   1400024f7:	0f b6 43 01          	movzbl 0x1(%rbx),%eax
   1400024fb:	3c 0e                	cmp    $0xe,%al
   1400024fd:	7e 04                	jle    140002503 <moveSnakeII+0xe7>
   1400024ff:	c6 43 01 00          	movb   $0x0,0x1(%rbx)
   140002503:	c6 43 02 04          	movb   $0x4,0x2(%rbx)
   140002507:	48 8b 4d 20          	mov    0x20(%rbp),%rcx
   14000250b:	48 8b 03             	mov    (%rbx),%rax
   14000250e:	48 8b 53 08          	mov    0x8(%rbx),%rdx
   140002512:	48 89 01             	mov    %rax,(%rcx)
   140002515:	48 89 51 08          	mov    %rdx,0x8(%rcx)
   140002519:	48 8b 43 10          	mov    0x10(%rbx),%rax
   14000251d:	48 89 41 10          	mov    %rax,0x10(%rcx)
   140002521:	48 8b 45 20          	mov    0x20(%rbp),%rax
   140002525:	48 83 c4 18          	add    $0x18,%rsp
   140002529:	5b                   	pop    %rbx
   14000252a:	5d                   	pop    %rbp
   14000252b:	c3                   	ret    

000000014000252c <userPause>:
   14000252c:	55                   	push   %rbp
   14000252d:	48 89 e5             	mov    %rsp,%rbp
   140002530:	48 83 ec 30          	sub    $0x30,%rsp
   140002534:	48 8d 0d 8a 2b 01 00 	lea    0x12b8a(%rip),%rcx        # 1400150c5 <.rdata+0xc5>
   14000253b:	e8 40 09 01 00       	call   140012e80 <system>
   140002540:	c7 45 fc 00 00 00 00 	movl   $0x0,-0x4(%rbp)
   140002547:	eb 22                	jmp    14000256b <userPause+0x3f>
   140002549:	83 7d fc 07          	cmpl   $0x7,-0x4(%rbp)
   14000254d:	75 0c                	jne    14000255b <userPause+0x2f>
   14000254f:	48 8d 0d 73 2b 01 00 	lea    0x12b73(%rip),%rcx        # 1400150c9 <.rdata+0xc9>
   140002556:	e8 e5 ef ff ff       	call   140001540 <printf>
   14000255b:	48 8d 0d 85 2b 01 00 	lea    0x12b85(%rip),%rcx        # 1400150e7 <.rdata+0xe7>
   140002562:	e8 d9 ef ff ff       	call   140001540 <printf>
   140002567:	83 45 fc 01          	addl   $0x1,-0x4(%rbp)
   14000256b:	83 7d fc 0d          	cmpl   $0xd,-0x4(%rbp)
   14000256f:	7e d8                	jle    140002549 <userPause+0x1d>
   140002571:	48 8d 0d 80 2b 01 00 	lea    0x12b80(%rip),%rcx        # 1400150f8 <.rdata+0xf8>
   140002578:	e8 c3 ef ff ff       	call   140001540 <printf>
   14000257d:	e8 fe 09 01 00       	call   140012f80 <getch>
   140002582:	88 45 fb             	mov    %al,-0x5(%rbp)
   140002585:	80 7d fb 70          	cmpb   $0x70,-0x5(%rbp)
   140002589:	74 02                	je     14000258d <userPause+0x61>
   14000258b:	eb f0                	jmp    14000257d <userPause+0x51>
   14000258d:	90                   	nop
   14000258e:	90                   	nop
   14000258f:	48 83 c4 30          	add    $0x30,%rsp
   140002593:	5d                   	pop    %rbp
   140002594:	c3                   	ret    

0000000140002595 <keyProcessing>:
   140002595:	55                   	push   %rbp
   140002596:	56                   	push   %rsi
   140002597:	53                   	push   %rbx
   140002598:	48 83 ec 50          	sub    $0x50,%rsp
   14000259c:	48 8d 6c 24 50       	lea    0x50(%rsp),%rbp
   1400025a1:	48 89 cb             	mov    %rcx,%rbx
   1400025a4:	89 55 28             	mov    %edx,0x28(%rbp)
   1400025a7:	4c 89 c6             	mov    %r8,%rsi
   1400025aa:	e8 d1 09 01 00       	call   140012f80 <getch>
   1400025af:	88 45 fb             	mov    %al,-0x5(%rbp)
   1400025b2:	b9 00 00 00 00       	mov    $0x0,%ecx
   1400025b7:	48 8b 05 22 1b 01 00 	mov    0x11b22(%rip),%rax        # 1400140e0 <__imp___acrt_iob_func>
   1400025be:	ff d0                	call   *%rax
   1400025c0:	48 89 c1             	mov    %rax,%rcx
   1400025c3:	e8 50 09 01 00       	call   140012f18 <fflush>
   1400025c8:	80 7d fb 77          	cmpb   $0x77,-0x5(%rbp)
   1400025cc:	74 06                	je     1400025d4 <keyProcessing+0x3f>
   1400025ce:	80 7d fb 57          	cmpb   $0x57,-0x5(%rbp)
   1400025d2:	75 3e                	jne    140002612 <keyProcessing+0x7d>
   1400025d4:	48 8b 03             	mov    (%rbx),%rax
   1400025d7:	48 8b 53 08          	mov    0x8(%rbx),%rdx
   1400025db:	48 89 45 d0          	mov    %rax,-0x30(%rbp)
   1400025df:	48 89 55 d8          	mov    %rdx,-0x28(%rbp)
   1400025e3:	48 8b 43 10          	mov    0x10(%rbx),%rax
   1400025e7:	48 89 45 e0          	mov    %rax,-0x20(%rbp)
   1400025eb:	48 8d 45 d0          	lea    -0x30(%rbp),%rax
   1400025ef:	ba 02 00 00 00       	mov    $0x2,%edx
   1400025f4:	48 89 c1             	mov    %rax,%rcx
   1400025f7:	e8 ac fc ff ff       	call   1400022a8 <checkDirection>
   1400025fc:	85 c0                	test   %eax,%eax
   1400025fe:	74 0a                	je     14000260a <keyProcessing+0x75>
   140002600:	b8 02 00 00 00       	mov    $0x2,%eax
   140002605:	e9 98 01 00 00       	jmp    1400027a2 <keyProcessing+0x20d>
   14000260a:	8b 45 28             	mov    0x28(%rbp),%eax
   14000260d:	e9 90 01 00 00       	jmp    1400027a2 <keyProcessing+0x20d>
   140002612:	80 7d fb 73          	cmpb   $0x73,-0x5(%rbp)
   140002616:	74 06                	je     14000261e <keyProcessing+0x89>
   140002618:	80 7d fb 53          	cmpb   $0x53,-0x5(%rbp)
   14000261c:	75 3e                	jne    14000265c <keyProcessing+0xc7>
   14000261e:	48 8b 03             	mov    (%rbx),%rax
   140002621:	48 8b 53 08          	mov    0x8(%rbx),%rdx
   140002625:	48 89 45 d0          	mov    %rax,-0x30(%rbp)
   140002629:	48 89 55 d8          	mov    %rdx,-0x28(%rbp)
   14000262d:	48 8b 43 10          	mov    0x10(%rbx),%rax
   140002631:	48 89 45 e0          	mov    %rax,-0x20(%rbp)
   140002635:	48 8d 45 d0          	lea    -0x30(%rbp),%rax
   140002639:	ba 04 00 00 00       	mov    $0x4,%edx
   14000263e:	48 89 c1             	mov    %rax,%rcx
   140002641:	e8 62 fc ff ff       	call   1400022a8 <checkDirection>
   140002646:	85 c0                	test   %eax,%eax
   140002648:	74 0a                	je     140002654 <keyProcessing+0xbf>
   14000264a:	b8 04 00 00 00       	mov    $0x4,%eax
   14000264f:	e9 4e 01 00 00       	jmp    1400027a2 <keyProcessing+0x20d>
   140002654:	8b 45 28             	mov    0x28(%rbp),%eax
   140002657:	e9 46 01 00 00       	jmp    1400027a2 <keyProcessing+0x20d>
   14000265c:	80 7d fb 61          	cmpb   $0x61,-0x5(%rbp)
   140002660:	74 06                	je     140002668 <keyProcessing+0xd3>
   140002662:	80 7d fb 41          	cmpb   $0x41,-0x5(%rbp)
   140002666:	75 3e                	jne    1400026a6 <keyProcessing+0x111>
   140002668:	48 8b 03             	mov    (%rbx),%rax
   14000266b:	48 8b 53 08          	mov    0x8(%rbx),%rdx
   14000266f:	48 89 45 d0          	mov    %rax,-0x30(%rbp)
   140002673:	48 89 55 d8          	mov    %rdx,-0x28(%rbp)
   140002677:	48 8b 43 10          	mov    0x10(%rbx),%rax
   14000267b:	48 89 45 e0          	mov    %rax,-0x20(%rbp)
   14000267f:	48 8d 45 d0          	lea    -0x30(%rbp),%rax
   140002683:	ba 01 00 00 00       	mov    $0x1,%edx
   140002688:	48 89 c1             	mov    %rax,%rcx
   14000268b:	e8 18 fc ff ff       	call   1400022a8 <checkDirection>
   140002690:	85 c0                	test   %eax,%eax
   140002692:	74 0a                	je     14000269e <keyProcessing+0x109>
   140002694:	b8 01 00 00 00       	mov    $0x1,%eax
   140002699:	e9 04 01 00 00       	jmp    1400027a2 <keyProcessing+0x20d>
   14000269e:	8b 45 28             	mov    0x28(%rbp),%eax
   1400026a1:	e9 fc 00 00 00       	jmp    1400027a2 <keyProcessing+0x20d>
   1400026a6:	80 7d fb 64          	cmpb   $0x64,-0x5(%rbp)
   1400026aa:	74 06                	je     1400026b2 <keyProcessing+0x11d>
   1400026ac:	80 7d fb 44          	cmpb   $0x44,-0x5(%rbp)
   1400026b0:	75 3e                	jne    1400026f0 <keyProcessing+0x15b>
   1400026b2:	48 8b 03             	mov    (%rbx),%rax
   1400026b5:	48 8b 53 08          	mov    0x8(%rbx),%rdx
   1400026b9:	48 89 45 d0          	mov    %rax,-0x30(%rbp)
   1400026bd:	48 89 55 d8          	mov    %rdx,-0x28(%rbp)
   1400026c1:	48 8b 43 10          	mov    0x10(%rbx),%rax
   1400026c5:	48 89 45 e0          	mov    %rax,-0x20(%rbp)
   1400026c9:	48 8d 45 d0          	lea    -0x30(%rbp),%rax
   1400026cd:	ba 03 00 00 00       	mov    $0x3,%edx
   1400026d2:	48 89 c1             	mov    %rax,%rcx
   1400026d5:	e8 ce fb ff ff       	call   1400022a8 <checkDirection>
   1400026da:	85 c0                	test   %eax,%eax
   1400026dc:	74 0a                	je     1400026e8 <keyProcessing+0x153>
   1400026de:	b8 03 00 00 00       	mov    $0x3,%eax
   1400026e3:	e9 ba 00 00 00       	jmp    1400027a2 <keyProcessing+0x20d>
   1400026e8:	8b 45 28             	mov    0x28(%rbp),%eax
   1400026eb:	e9 b2 00 00 00       	jmp    1400027a2 <keyProcessing+0x20d>
   1400026f0:	80 7d fb 70          	cmpb   $0x70,-0x5(%rbp)
   1400026f4:	74 06                	je     1400026fc <keyProcessing+0x167>
   1400026f6:	80 7d fb 50          	cmpb   $0x50,-0x5(%rbp)
   1400026fa:	75 11                	jne    14000270d <keyProcessing+0x178>
   1400026fc:	e8 2b fe ff ff       	call   14000252c <userPause>
   140002701:	0f b6 43 02          	movzbl 0x2(%rbx),%eax
   140002705:	0f be c0             	movsbl %al,%eax
   140002708:	e9 95 00 00 00       	jmp    1400027a2 <keyProcessing+0x20d>
   14000270d:	80 7d fb 71          	cmpb   $0x71,-0x5(%rbp)
   140002711:	74 0a                	je     14000271d <keyProcessing+0x188>
   140002713:	80 7d fb 51          	cmpb   $0x51,-0x5(%rbp)
   140002717:	0f 85 85 00 00 00    	jne    1400027a2 <keyProcessing+0x20d>
   14000271d:	48 8d 0d a1 29 01 00 	lea    0x129a1(%rip),%rcx        # 1400150c5 <.rdata+0xc5>
   140002724:	e8 57 07 01 00       	call   140012e80 <system>
   140002729:	c7 45 fc 00 00 00 00 	movl   $0x0,-0x4(%rbp)
   140002730:	eb 4a                	jmp    14000277c <keyProcessing+0x1e7>
   140002732:	83 7d fc 07          	cmpl   $0x7,-0x4(%rbp)
   140002736:	75 34                	jne    14000276c <keyProcessing+0x1d7>
   140002738:	48 8d 0d e1 29 01 00 	lea    0x129e1(%rip),%rcx        # 140015120 <.rdata+0x120>
   14000273f:	e8 fc ed ff ff       	call   140001540 <printf>
   140002744:	48 8d 0d f5 29 01 00 	lea    0x129f5(%rip),%rcx        # 140015140 <.rdata+0x140>
   14000274b:	e8 f0 ed ff ff       	call   140001540 <printf>
   140002750:	48 8b 53 10          	mov    0x10(%rbx),%rdx
   140002754:	0f b6 46 02          	movzbl 0x2(%rsi),%eax
   140002758:	0f be c0             	movsbl %al,%eax
   14000275b:	49 89 d0             	mov    %rdx,%r8
   14000275e:	89 c2                	mov    %eax,%edx
   140002760:	48 8d 0d f9 29 01 00 	lea    0x129f9(%rip),%rcx        # 140015160 <.rdata+0x160>
   140002767:	e8 d4 ed ff ff       	call   140001540 <printf>
   14000276c:	48 8d 0d 0e 2a 01 00 	lea    0x12a0e(%rip),%rcx        # 140015181 <.rdata+0x181>
   140002773:	e8 c8 ed ff ff       	call   140001540 <printf>
   140002778:	83 45 fc 01          	addl   $0x1,-0x4(%rbp)
   14000277c:	83 7d fc 0e          	cmpl   $0xe,-0x4(%rbp)
   140002780:	7e b0                	jle    140002732 <keyProcessing+0x19d>
   140002782:	48 8b 43 08          	mov    0x8(%rbx),%rax
   140002786:	48 89 c1             	mov    %rax,%rcx
   140002789:	e8 72 07 01 00       	call   140012f00 <free>
   14000278e:	b9 04 00 00 00       	mov    $0x4,%ecx
   140002793:	e8 68 b8 00 00       	call   14000e000 <sleep>
   140002798:	b9 00 00 00 00       	mov    $0x0,%ecx
   14000279d:	e8 7e 07 01 00       	call   140012f20 <exit>
   1400027a2:	48 83 c4 50          	add    $0x50,%rsp
   1400027a6:	5b                   	pop    %rbx
   1400027a7:	5e                   	pop    %rsi
   1400027a8:	5d                   	pop    %rbp
   1400027a9:	c3                   	ret    

00000001400027aa <selfEatingSingleGame>:
   1400027aa:	55                   	push   %rbp
   1400027ab:	56                   	push   %rsi
   1400027ac:	53                   	push   %rbx
   1400027ad:	48 83 ec 30          	sub    $0x30,%rsp
   1400027b1:	48 8d 6c 24 30       	lea    0x30(%rsp),%rbp
   1400027b6:	48 89 cb             	mov    %rcx,%rbx
   1400027b9:	48 89 d6             	mov    %rdx,%rsi
   1400027bc:	48 8b 43 10          	mov    0x10(%rbx),%rax
   1400027c0:	83 e8 01             	sub    $0x1,%eax
   1400027c3:	89 45 fc             	mov    %eax,-0x4(%rbp)
   1400027c6:	e9 d1 00 00 00       	jmp    14000289c <selfEatingSingleGame+0xf2>
   1400027cb:	0f b6 13             	movzbl (%rbx),%edx
   1400027ce:	48 8b 4b 08          	mov    0x8(%rbx),%rcx
   1400027d2:	8b 45 fc             	mov    -0x4(%rbp),%eax
   1400027d5:	48 98                	cltq   
   1400027d7:	48 01 c0             	add    %rax,%rax
   1400027da:	48 01 c8             	add    %rcx,%rax
   1400027dd:	0f b6 00             	movzbl (%rax),%eax
   1400027e0:	38 c2                	cmp    %al,%dl
   1400027e2:	0f 85 b0 00 00 00    	jne    140002898 <selfEatingSingleGame+0xee>
   1400027e8:	0f b6 53 01          	movzbl 0x1(%rbx),%edx
   1400027ec:	48 8b 4b 08          	mov    0x8(%rbx),%rcx
   1400027f0:	8b 45 fc             	mov    -0x4(%rbp),%eax
   1400027f3:	48 98                	cltq   
   1400027f5:	48 01 c0             	add    %rax,%rax
   1400027f8:	48 01 c8             	add    %rcx,%rax
   1400027fb:	0f b6 40 01          	movzbl 0x1(%rax),%eax
   1400027ff:	38 c2                	cmp    %al,%dl
   140002801:	0f 85 91 00 00 00    	jne    140002898 <selfEatingSingleGame+0xee>
   140002807:	48 8d 0d b7 28 01 00 	lea    0x128b7(%rip),%rcx        # 1400150c5 <.rdata+0xc5>
   14000280e:	e8 6d 06 01 00       	call   140012e80 <system>
   140002813:	c7 45 f8 00 00 00 00 	movl   $0x0,-0x8(%rbp)
   14000281a:	eb 56                	jmp    140002872 <selfEatingSingleGame+0xc8>
   14000281c:	83 7d f8 07          	cmpl   $0x7,-0x8(%rbp)
   140002820:	75 40                	jne    140002862 <selfEatingSingleGame+0xb8>
   140002822:	48 8d 0d 5f 29 01 00 	lea    0x1295f(%rip),%rcx        # 140015188 <.rdata+0x188>
   140002829:	e8 12 ed ff ff       	call   140001540 <printf>
   14000282e:	48 8d 0d 73 29 01 00 	lea    0x12973(%rip),%rcx        # 1400151a8 <.rdata+0x1a8>
   140002835:	e8 06 ed ff ff       	call   140001540 <printf>
   14000283a:	48 8d 0d ff 28 01 00 	lea    0x128ff(%rip),%rcx        # 140015140 <.rdata+0x140>
   140002841:	e8 fa ec ff ff       	call   140001540 <printf>
   140002846:	48 8b 53 10          	mov    0x10(%rbx),%rdx
   14000284a:	0f b6 46 02          	movzbl 0x2(%rsi),%eax
   14000284e:	0f be c0             	movsbl %al,%eax
   140002851:	49 89 d0             	mov    %rdx,%r8
   140002854:	89 c2                	mov    %eax,%edx
   140002856:	48 8d 0d 6b 29 01 00 	lea    0x1296b(%rip),%rcx        # 1400151c8 <.rdata+0x1c8>
   14000285d:	e8 de ec ff ff       	call   140001540 <printf>
   140002862:	48 8d 0d 7e 28 01 00 	lea    0x1287e(%rip),%rcx        # 1400150e7 <.rdata+0xe7>
   140002869:	e8 d2 ec ff ff       	call   140001540 <printf>
   14000286e:	83 45 f8 01          	addl   $0x1,-0x8(%rbp)
   140002872:	83 7d f8 0e          	cmpl   $0xe,-0x8(%rbp)  
   140002876:	7e a4                	jle    14000281c <selfEatingSingleGame+0x72>
   140002878:	48 8b 43 08          	mov    0x8(%rbx),%rax
   14000287c:	48 89 c1             	mov    %rax,%rcx
   14000287f:	e8 7c 06 01 00       	call   140012f00 <free>
   140002884:	b9 03 00 00 00       	mov    $0x3,%ecx
   140002889:	e8 72 b7 00 00       	call   14000e000 <sleep>
   14000288e:	b9 00 00 00 00       	mov    $0x0,%ecx
   140002893:	e8 88 06 01 00       	call   140012f20 <exit>
   140002898:	83 6d fc 01          	subl   $0x1,-0x4(%rbp)
   14000289c:	83 7d fc 00          	cmpl   $0x0,-0x4(%rbp)
   1400028a0:	0f 8f 25 ff ff ff    	jg     1400027cb <selfEatingSingleGame+0x21>
   1400028a6:	90                   	nop
   1400028a7:	90                   	nop
   1400028a8:	48 83 c4 30          	add    $0x30,%rsp
   1400028ac:	5b                   	pop    %rbx
   1400028ad:	5e                   	pop    %rsi
   1400028ae:	5d                   	pop    %rbp
   1400028af:	c3                   	ret    

00000001400028b0 <selfEatingAiGame>:
   1400028b0:	55                   	push   %rbp
   1400028b1:	57                   	push   %rdi
   1400028b2:	56                   	push   %rsi
   1400028b3:	53                   	push   %rbx
   1400028b4:	48 83 ec 38          	sub    $0x38,%rsp
   1400028b8:	48 8d 6c 24 30       	lea    0x30(%rsp),%rbp
   1400028bd:	48 89 cb             	mov    %rcx,%rbx
   1400028c0:	48 89 d6             	mov    %rdx,%rsi
   1400028c3:	4c 89 c7             	mov    %r8,%rdi
   1400028c6:	48 8b 43 10          	mov    0x10(%rbx),%rax
   1400028ca:	83 e8 01             	sub    $0x1,%eax
   1400028cd:	89 45 fc             	mov    %eax,-0x4(%rbp)
   1400028d0:	e9 e4 00 00 00       	jmp    1400029b9 <selfEatingAiGame+0x109>
   1400028d5:	0f b6 13             	movzbl (%rbx),%edx
   1400028d8:	48 8b 4b 08          	mov    0x8(%rbx),%rcx
   1400028dc:	8b 45 fc             	mov    -0x4(%rbp),%eax
   1400028df:	48 98                	cltq   
   1400028e1:	48 01 c0             	add    %rax,%rax
   1400028e4:	48 01 c8             	add    %rcx,%rax
   1400028e7:	0f b6 00             	movzbl (%rax),%eax
   1400028ea:	38 c2                	cmp    %al,%dl
   1400028ec:	0f 85 c3 00 00 00    	jne    1400029b5 <selfEatingAiGame+0x105>
   1400028f2:	0f b6 53 01          	movzbl 0x1(%rbx),%edx
   1400028f6:	48 8b 4b 08          	mov    0x8(%rbx),%rcx
   1400028fa:	8b 45 fc             	mov    -0x4(%rbp),%eax
   1400028fd:	48 98                	cltq   
   1400028ff:	48 01 c0             	add    %rax,%rax
   140002902:	48 01 c8             	add    %rcx,%rax
   140002905:	0f b6 40 01          	movzbl 0x1(%rax),%eax
   140002909:	38 c2                	cmp    %al,%dl
   14000290b:	0f 85 a4 00 00 00    	jne    1400029b5 <selfEatingAiGame+0x105>
   140002911:	48 8d 0d ad 27 01 00 	lea    0x127ad(%rip),%rcx        # 1400150c5 <.rdata+0xc5>
   140002918:	e8 63 05 01 00       	call   140012e80 <system>
   14000291d:	c7 45 f8 00 00 00 00 	movl   $0x0,-0x8(%rbp)
   140002924:	eb 5d                	jmp    140002983 <selfEatingAiGame+0xd3>
   140002926:	83 7d f8 07          	cmpl   $0x7,-0x8(%rbp)
   14000292a:	75 47                	jne    140002973 <selfEatingAiGame+0xc3>
   14000292c:	48 8d 0d 55 28 01 00 	lea    0x12855(%rip),%rcx        # 140015188 <.rdata+0x188>
   140002933:	e8 08 ec ff ff       	call   140001540 <printf>
   140002938:	48 8d 0d 69 28 01 00 	lea    0x12869(%rip),%rcx        # 1400151a8 <.rdata+0x1a8>
   14000293f:	e8 fc eb ff ff       	call   140001540 <printf>
   140002944:	48 8d 0d f5 27 01 00 	lea    0x127f5(%rip),%rcx        # 140015140 <.rdata+0x140>
   14000294b:	e8 f0 eb ff ff       	call   140001540 <printf>
   140002950:	48 8b 4e 10          	mov    0x10(%rsi),%rcx
   140002954:	48 8b 53 10          	mov    0x10(%rbx),%rdx
   140002958:	0f b6 47 02          	movzbl 0x2(%rdi),%eax
   14000295c:	0f be c0             	movsbl %al,%eax
   14000295f:	49 89 c9             	mov    %rcx,%r9
   140002962:	49 89 d0             	mov    %rdx,%r8
   140002965:	89 c2                	mov    %eax,%edx
   140002967:	48 8d 0d 82 28 01 00 	lea    0x12882(%rip),%rcx        # 1400151f0 <.rdata+0x1f0>
   14000296e:	e8 cd eb ff ff       	call   140001540 <printf>
   140002973:	48 8d 0d 6d 27 01 00 	lea    0x1276d(%rip),%rcx        # 1400150e7 <.rdata+0xe7>
   14000297a:	e8 c1 eb ff ff       	call   140001540 <printf>
   14000297f:	83 45 f8 01          	addl   $0x1,-0x8(%rbp)
   140002983:	83 7d f8 0e          	cmpl   $0xe,-0x8(%rbp)
   140002987:	7e 9d                	jle    140002926 <selfEatingAiGame+0x76>
   140002989:	48 8b 43 08          	mov    0x8(%rbx),%rax
   14000298d:	48 89 c1             	mov    %rax,%rcx
   140002990:	e8 6b 05 01 00       	call   140012f00 <free>
   140002995:	48 8b 46 08          	mov    0x8(%rsi),%rax
   140002999:	48 89 c1             	mov    %rax,%rcx
   14000299c:	e8 5f 05 01 00       	call   140012f00 <free>
   1400029a1:	b9 03 00 00 00       	mov    $0x3,%ecx
   1400029a6:	e8 55 b6 00 00       	call   14000e000 <sleep>
   1400029ab:	b9 00 00 00 00       	mov    $0x0,%ecx
   1400029b0:	e8 6b 05 01 00       	call   140012f20 <exit>
   1400029b5:	83 6d fc 01          	subl   $0x1,-0x4(%rbp)
   1400029b9:	83 7d fc 00          	cmpl   $0x0,-0x4(%rbp)
   1400029bd:	0f 8f 12 ff ff ff    	jg     1400028d5 <selfEatingAiGame+0x25>
   1400029c3:	48 8b 46 10          	mov    0x10(%rsi),%rax
   1400029c7:	83 e8 01             	sub    $0x1,%eax
   1400029ca:	89 45 f4             	mov    %eax,-0xc(%rbp)
   1400029cd:	e9 e4 00 00 00       	jmp    140002ab6 <selfEatingAiGame+0x206>
   1400029d2:	0f b6 16             	movzbl (%rsi),%edx
   1400029d5:	48 8b 4e 08          	mov    0x8(%rsi),%rcx
   1400029d9:	8b 45 f4             	mov    -0xc(%rbp),%eax
   1400029dc:	48 98                	cltq   
   1400029de:	48 01 c0             	add    %rax,%rax
   1400029e1:	48 01 c8             	add    %rcx,%rax
   1400029e4:	0f b6 00             	movzbl (%rax),%eax
   1400029e7:	38 c2                	cmp    %al,%dl
   1400029e9:	0f 85 c3 00 00 00    	jne    140002ab2 <selfEatingAiGame+0x202>
   1400029ef:	0f b6 56 01          	movzbl 0x1(%rsi),%edx
   1400029f3:	48 8b 4e 08          	mov    0x8(%rsi),%rcx
   1400029f7:	8b 45 f4             	mov    -0xc(%rbp),%eax
   1400029fa:	48 98                	cltq   
   1400029fc:	48 01 c0             	add    %rax,%rax
   1400029ff:	48 01 c8             	add    %rcx,%rax
   140002a02:	0f b6 40 01          	movzbl 0x1(%rax),%eax
   140002a06:	38 c2                	cmp    %al,%dl
   140002a08:	0f 85 a4 00 00 00    	jne    140002ab2 <selfEatingAiGame+0x202>
   140002a0e:	48 8d 0d b0 26 01 00 	lea    0x126b0(%rip),%rcx        # 1400150c5 <.rdata+0xc5>
   140002a15:	e8 66 04 01 00       	call   140012e80 <system>
   140002a1a:	c7 45 f0 00 00 00 00 	movl   $0x0,-0x10(%rbp)
   140002a21:	eb 5d                	jmp    140002a80 <selfEatingAiGame+0x1d0>
   140002a23:	83 7d f0 07          	cmpl   $0x7,-0x10(%rbp)
   140002a27:	75 47                	jne    140002a70 <selfEatingAiGame+0x1c0>
   140002a29:	48 8d 0d 58 27 01 00 	lea    0x12758(%rip),%rcx        # 140015188 <.rdata+0x188>
   140002a30:	e8 0b eb ff ff       	call   140001540 <printf>
   140002a35:	48 8d 0d ec 27 01 00 	lea    0x127ec(%rip),%rcx        # 140015228 <.rdata+0x228>
   140002a3c:	e8 ff ea ff ff       	call   140001540 <printf>
   140002a41:	48 8d 0d f8 26 01 00 	lea    0x126f8(%rip),%rcx        # 140015140 <.rdata+0x140>
   140002a48:	e8 f3 ea ff ff       	call   140001540 <printf>
   140002a4d:	48 8b 4e 10          	mov    0x10(%rsi),%rcx
   140002a51:	48 8b 53 10          	mov    0x10(%rbx),%rdx
   140002a55:	0f b6 47 02          	movzbl 0x2(%rdi),%eax
   140002a59:	0f be c0             	movsbl %al,%eax
   140002a5c:	49 89 c9             	mov    %rcx,%r9
   140002a5f:	49 89 d0             	mov    %rdx,%r8
   140002a62:	89 c2                	mov    %eax,%edx
   140002a64:	48 8d 0d 85 27 01 00 	lea    0x12785(%rip),%rcx        # 1400151f0 <.rdata+0x1f0>
   140002a6b:	e8 d0 ea ff ff       	call   140001540 <printf>
   140002a70:	48 8d 0d 70 26 01 00 	lea    0x12670(%rip),%rcx        # 1400150e7 <.rdata+0xe7>
   140002a77:	e8 c4 ea ff ff       	call   140001540 <printf>
   140002a7c:	83 45 f0 01          	addl   $0x1,-0x10(%rbp)
   140002a80:	83 7d f0 0e          	cmpl   $0xe,-0x10(%rbp)
   140002a84:	7e 9d                	jle    140002a23 <selfEatingAiGame+0x173>
   140002a86:	48 8b 43 08          	mov    0x8(%rbx),%rax
   140002a8a:	48 89 c1             	mov    %rax,%rcx
   140002a8d:	e8 6e 04 01 00       	call   140012f00 <free>
   140002a92:	48 8b 46 08          	mov    0x8(%rsi),%rax
   140002a96:	48 89 c1             	mov    %rax,%rcx
   140002a99:	e8 62 04 01 00       	call   140012f00 <free>
   140002a9e:	b9 03 00 00 00       	mov    $0x3,%ecx
   140002aa3:	e8 58 b5 00 00       	call   14000e000 <sleep>
   140002aa8:	b9 00 00 00 00       	mov    $0x0,%ecx
   140002aad:	e8 6e 04 01 00       	call   140012f20 <exit>
   140002ab2:	83 6d f4 01          	subl   $0x1,-0xc(%rbp)
   140002ab6:	83 7d f4 00          	cmpl   $0x0,-0xc(%rbp)
   140002aba:	0f 8f 12 ff ff ff    	jg     1400029d2 <selfEatingAiGame+0x122>
   140002ac0:	90                   	nop
   140002ac1:	90                   	nop
   140002ac2:	48 83 c4 38          	add    $0x38,%rsp
   140002ac6:	5b                   	pop    %rbx
   140002ac7:	5e                   	pop    %rsi
   140002ac8:	5f                   	pop    %rdi
   140002ac9:	5d                   	pop    %rbp
   140002aca:	c3                   	ret    

0000000140002acb <printLevel>:
   140002acb:	55                   	push   %rbp
   140002acc:	53                   	push   %rbx
   140002acd:	48 83 ec 28          	sub    $0x28,%rsp
   140002ad1:	48 8d 6c 24 20       	lea    0x20(%rsp),%rbp
   140002ad6:	48 89 cb             	mov    %rcx,%rbx
   140002ad9:	0f b6 43 02          	movzbl 0x2(%rbx),%eax
   140002add:	3c 13                	cmp    $0x13,%al
   140002adf:	7f 2b                	jg     140002b0c <printLevel+0x41>
   140002ae1:	0f b6 43 02          	movzbl 0x2(%rbx),%eax
   140002ae5:	0f be c0             	movsbl %al,%eax
   140002ae8:	8d 50 01             	lea    0x1(%rax),%edx
   140002aeb:	89 d0                	mov    %edx,%eax
   140002aed:	c1 e0 02             	shl    $0x2,%eax
   140002af0:	01 c2                	add    %eax,%edx
   140002af2:	0f b6 43 02          	movzbl 0x2(%rbx),%eax
   140002af6:	0f be c0             	movsbl %al,%eax
   140002af9:	41 89 d0             	mov    %edx,%r8d
   140002afc:	89 c2                	mov    %eax,%edx
   140002afe:	48 8d 0d 42 27 01 00 	lea    0x12742(%rip),%rcx        # 140015247 <.rdata+0x247>
   140002b05:	e8 36 ea ff ff       	call   140001540 <printf>
   140002b0a:	eb 15                	jmp    140002b21 <printLevel+0x56>
   140002b0c:	0f b6 43 02          	movzbl 0x2(%rbx),%eax
   140002b10:	0f be c0             	movsbl %al,%eax
   140002b13:	89 c2                	mov    %eax,%edx
   140002b15:	48 8d 0d 48 27 01 00 	lea    0x12748(%rip),%rcx        # 140015264 <.rdata+0x264>
   140002b1c:	e8 1f ea ff ff       	call   140001540 <printf>
   140002b21:	48 8d 0d 55 27 01 00 	lea    0x12755(%rip),%rcx        # 14001527d <.rdata+0x27d>
   140002b28:	e8 13 ea ff ff       	call   140001540 <printf>
   140002b2d:	48 8d 0d 64 27 01 00 	lea    0x12764(%rip),%rcx        # 140015298 <.rdata+0x298>
   140002b34:	e8 07 ea ff ff       	call   140001540 <printf>
   140002b39:	90                   	nop
   140002b3a:	48 83 c4 28          	add    $0x28,%rsp
   140002b3e:	5b                   	pop    %rbx
   140002b3f:	5d                   	pop    %rbp
   140002b40:	c3                   	ret    

0000000140002b41 <speedBoost>:
   140002b41:	55                   	push   %rbp
   140002b42:	53                   	push   %rbx
   140002b43:	48 8d 2c 24          	lea    (%rsp),%rbp
   140002b47:	48 89 cb             	mov    %rcx,%rbx
   140002b4a:	0f b6 43 02          	movzbl 0x2(%rbx),%eax
   140002b4e:	3c 14                	cmp    $0x14,%al
   140002b50:	7f 11                	jg     140002b63 <speedBoost+0x22>
   140002b52:	0f b6 43 02          	movzbl 0x2(%rbx),%eax
   140002b56:	0f be c0             	movsbl %al,%eax
   140002b59:	6b c0 ce             	imul   $0xffffffce,%eax,%eax
   140002b5c:	05 e8 03 00 00       	add    $0x3e8,%eax
   140002b61:	eb 05                	jmp    140002b68 <speedBoost+0x27>
   140002b63:	b8 01 00 00 00       	mov    $0x1,%eax
   140002b68:	5b                   	pop    %rbx
   140002b69:	5d                   	pop    %rbp
   140002b6a:	c3                   	ret    

0000000140002b6b <autoChangeDirection>:
   140002b6b:	55                   	push   %rbp
   140002b6c:	53                   	push   %rbx
   140002b6d:	48 8d 2c 24          	lea    (%rsp),%rbp
   140002b71:	48 89 4d 18          	mov    %rcx,0x18(%rbp)
   140002b75:	48 89 d3             	mov    %rdx,%rbx
   140002b78:	48 8b 45 18          	mov    0x18(%rbp),%rax
   140002b7c:	0f b6 40 02          	movzbl 0x2(%rax),%eax
   140002b80:	3c 03                	cmp    $0x3,%al
   140002b82:	74 0c                	je     140002b90 <autoChangeDirection+0x25>
   140002b84:	48 8b 45 18          	mov    0x18(%rbp),%rax
   140002b88:	0f b6 40 02          	movzbl 0x2(%rax),%eax
   140002b8c:	3c 01                	cmp    $0x1,%al
   140002b8e:	75 35                	jne    140002bc5 <autoChangeDirection+0x5a>
   140002b90:	48 8b 45 18          	mov    0x18(%rbp),%rax
   140002b94:	0f b6 50 01          	movzbl 0x1(%rax),%edx
   140002b98:	0f b6 43 01          	movzbl 0x1(%rbx),%eax
   140002b9c:	38 c2                	cmp    %al,%dl
   140002b9e:	74 25                	je     140002bc5 <autoChangeDirection+0x5a>
   140002ba0:	0f b6 53 01          	movzbl 0x1(%rbx),%edx
   140002ba4:	48 8b 45 18          	mov    0x18(%rbp),%rax
   140002ba8:	0f b6 40 01          	movzbl 0x1(%rax),%eax
   140002bac:	38 c2                	cmp    %al,%dl
   140002bae:	7e 07                	jle    140002bb7 <autoChangeDirection+0x4c>
   140002bb0:	ba 04 00 00 00       	mov    $0x4,%edx
   140002bb5:	eb 05                	jmp    140002bbc <autoChangeDirection+0x51>
   140002bb7:	ba 02 00 00 00       	mov    $0x2,%edx
   140002bbc:	48 8b 45 18          	mov    0x18(%rbp),%rax
   140002bc0:	88 50 02             	mov    %dl,0x2(%rax)
   140002bc3:	eb 47                	jmp    140002c0c <autoChangeDirection+0xa1>
   140002bc5:	48 8b 45 18          	mov    0x18(%rbp),%rax
   140002bc9:	0f b6 40 02          	movzbl 0x2(%rax),%eax
   140002bcd:	3c 04                	cmp    $0x4,%al
   140002bcf:	74 0c                	je     140002bdd <autoChangeDirection+0x72>
   140002bd1:	48 8b 45 18          	mov    0x18(%rbp),%rax
   140002bd5:	0f b6 40 02          	movzbl 0x2(%rax),%eax
   140002bd9:	3c 02                	cmp    $0x2,%al
   140002bdb:	75 2f                	jne    140002c0c <autoChangeDirection+0xa1>
   140002bdd:	48 8b 45 18          	mov    0x18(%rbp),%rax
   140002be1:	0f b6 10             	movzbl (%rax),%edx
   140002be4:	0f b6 03             	movzbl (%rbx),%eax
   140002be7:	38 c2                	cmp    %al,%dl
   140002be9:	74 21                	je     140002c0c <autoChangeDirection+0xa1>
   140002beb:	0f b6 13             	movzbl (%rbx),%edx
   140002bee:	48 8b 45 18          	mov    0x18(%rbp),%rax
   140002bf2:	0f b6 00             	movzbl (%rax),%eax
   140002bf5:	38 c2                	cmp    %al,%dl
   140002bf7:	7e 07                	jle    140002c00 <autoChangeDirection+0x95>
   140002bf9:	ba 03 00 00 00       	mov    $0x3,%edx
   140002bfe:	eb 05                	jmp    140002c05 <autoChangeDirection+0x9a>
   140002c00:	ba 01 00 00 00       	mov    $0x1,%edx
   140002c05:	48 8b 45 18          	mov    0x18(%rbp),%rax
   140002c09:	88 50 02             	mov    %dl,0x2(%rax)
   140002c0c:	90                   	nop
   140002c0d:	5b                   	pop    %rbx
   140002c0e:	5d                   	pop    %rbp
   140002c0f:	c3                   	ret    

0000000140002c10 <singleGame>:
   140002c10:	55                   	push   %rbp
   140002c11:	48 81 ec 90 01 00 00 	sub    $0x190,%rsp
   140002c18:	48 8d ac 24 80 00 00 	lea    0x80(%rsp),%rbp
   140002c1f:	00 
   140002c20:	48 89 e8             	mov    %rbp,%rax
   140002c23:	41 b9 02 00 00 00    	mov    $0x2,%r9d
   140002c29:	41 b8 07 00 00 00    	mov    $0x7,%r8d
   140002c2f:	ba 07 00 00 00       	mov    $0x7,%edx
   140002c34:	48 89 c1             	mov    %rax,%rcx
   140002c37:	e8 84 ec ff ff       	call   1400018c0 <initSnake>
   140002c3c:	48 8d 0d 75 26 01 00 	lea    0x12675(%rip),%rcx        # 1400152b8 <.rdata+0x2b8>
   140002c43:	e8 f8 e8 ff ff       	call   140001540 <printf>
   140002c48:	48 89 e8             	mov    %rbp,%rax
   140002c4b:	48 89 c1             	mov    %rax,%rcx
   140002c4e:	e8 e4 e9 ff ff       	call   140001637 <setSnakeColor>
   140002c53:	48 8d 45 fd          	lea    -0x3(%rbp),%rax
   140002c57:	48 89 c1             	mov    %rax,%rcx
   140002c5a:	e8 8b e9 ff ff       	call   1400015ea <initEat>
   140002c5f:	0f b7 45 fd          	movzwl -0x3(%rbp),%eax
   140002c63:	66 89 45 e0          	mov    %ax,-0x20(%rbp)
   140002c67:	0f b6 45 ff          	movzbl -0x1(%rbp),%eax
   140002c6b:	88 45 e2             	mov    %al,-0x1e(%rbp)
   140002c6e:	48 8d 4d e0          	lea    -0x20(%rbp),%rcx
   140002c72:	48 89 ea             	mov    %rbp,%rdx
   140002c75:	48 8d 45 20          	lea    0x20(%rbp),%rax
   140002c79:	49 89 c8             	mov    %rcx,%r8
   140002c7c:	48 89 c1             	mov    %rax,%rcx
   140002c7f:	e8 67 ed ff ff       	call   1400019eb <fillMatrixSingleGame>
   140002c84:	0f b7 45 fd          	movzwl -0x3(%rbp),%eax
   140002c88:	66 89 45 e0          	mov    %ax,-0x20(%rbp)
   140002c8c:	0f b6 45 ff          	movzbl -0x1(%rbp),%eax
   140002c90:	88 45 e2             	mov    %al,-0x1e(%rbp)
   140002c93:	48 8d 4d e0          	lea    -0x20(%rbp),%rcx
   140002c97:	48 89 ea             	mov    %rbp,%rdx
   140002c9a:	48 8d 45 20          	lea    0x20(%rbp),%rax
   140002c9e:	49 89 c8             	mov    %rcx,%r8
   140002ca1:	48 89 c1             	mov    %rax,%rcx
   140002ca4:	e8 3e f1 ff ff       	call   140001de7 <printMatrixSingleGame>
   140002ca9:	0f b7 45 fd          	movzwl -0x3(%rbp),%eax
   140002cad:	66 89 45 e0          	mov    %ax,-0x20(%rbp)
   140002cb1:	0f b6 45 ff          	movzbl -0x1(%rbp),%eax
   140002cb5:	88 45 e2             	mov    %al,-0x1e(%rbp)
   140002cb8:	48 8d 45 e0          	lea    -0x20(%rbp),%rax
   140002cbc:	48 89 c1             	mov    %rax,%rcx
   140002cbf:	e8 07 fe ff ff       	call   140002acb <printLevel>
   140002cc4:	c7 85 0c 01 00 00 01 	movl   $0x1,0x10c(%rbp)
   140002ccb:	00 00 00 
   140002cce:	e8 55 02 01 00       	call   140012f28 <clock>
   140002cd3:	89 85 08 01 00 00    	mov    %eax,0x108(%rbp)
   140002cd9:	e8 92 02 01 00       	call   140012f70 <kbhit>
   140002cde:	85 c0                	test   %eax,%eax
   140002ce0:	74 46                	je     140002d28 <singleGame+0x118>
   140002ce2:	48 8b 45 00          	mov    0x0(%rbp),%rax
   140002ce6:	48 8b 55 08          	mov    0x8(%rbp),%rdx
   140002cea:	48 89 45 c0          	mov    %rax,-0x40(%rbp)
   140002cee:	48 89 55 c8          	mov    %rdx,-0x38(%rbp)
   140002cf2:	48 8b 45 10          	mov    0x10(%rbp),%rax
   140002cf6:	48 89 45 d0          	mov    %rax,-0x30(%rbp)
   140002cfa:	0f b7 45 fd          	movzwl -0x3(%rbp),%eax
   140002cfe:	66 89 45 e0          	mov    %ax,-0x20(%rbp)
   140002d02:	0f b6 45 ff          	movzbl -0x1(%rbp),%eax
   140002d06:	88 45 e2             	mov    %al,-0x1e(%rbp)
   140002d09:	48 8d 4d e0          	lea    -0x20(%rbp),%rcx
   140002d0d:	8b 95 0c 01 00 00    	mov    0x10c(%rbp),%edx
   140002d13:	48 8d 45 c0          	lea    -0x40(%rbp),%rax
   140002d17:	49 89 c8             	mov    %rcx,%r8
   140002d1a:	48 89 c1             	mov    %rax,%rcx
   140002d1d:	e8 73 f8 ff ff       	call   140002595 <keyProcessing>
   140002d22:	89 85 0c 01 00 00    	mov    %eax,0x10c(%rbp)
   140002d28:	48 8d 4d c0          	lea    -0x40(%rbp),%rcx
   140002d2c:	48 8b 45 00          	mov    0x0(%rbp),%rax
   140002d30:	48 8b 55 08          	mov    0x8(%rbp),%rdx
   140002d34:	48 89 45 a0          	mov    %rax,-0x60(%rbp)
   140002d38:	48 89 55 a8          	mov    %rdx,-0x58(%rbp)
   140002d3c:	48 8b 45 10          	mov    0x10(%rbp),%rax
   140002d40:	48 89 45 b0          	mov    %rax,-0x50(%rbp)
   140002d44:	8b 95 0c 01 00 00    	mov    0x10c(%rbp),%edx
   140002d4a:	48 8d 45 a0          	lea    -0x60(%rbp),%rax
   140002d4e:	41 89 d0             	mov    %edx,%r8d
   140002d51:	48 89 c2             	mov    %rax,%rdx
   140002d54:	e8 b7 f5 ff ff       	call   140002310 <moveSnake>
   140002d59:	48 8b 45 c0          	mov    -0x40(%rbp),%rax
   140002d5d:	48 8b 55 c8          	mov    -0x38(%rbp),%rdx
   140002d61:	48 89 45 00          	mov    %rax,0x0(%rbp)
   140002d65:	48 89 55 08          	mov    %rdx,0x8(%rbp)
   140002d69:	48 8b 45 d0          	mov    -0x30(%rbp),%rax
   140002d6d:	48 89 45 10          	mov    %rax,0x10(%rbp)
   140002d71:	48 8b 45 00          	mov    0x0(%rbp),%rax
   140002d75:	48 8b 55 08          	mov    0x8(%rbp),%rdx
   140002d79:	48 89 45 a0          	mov    %rax,-0x60(%rbp)
   140002d7d:	48 89 55 a8          	mov    %rdx,-0x58(%rbp)
   140002d81:	48 8b 45 10          	mov    0x10(%rbp),%rax
   140002d85:	48 89 45 b0          	mov    %rax,-0x50(%rbp)
   140002d89:	0f b7 45 fd          	movzwl -0x3(%rbp),%eax
   140002d8d:	66 89 45 c0          	mov    %ax,-0x40(%rbp)
   140002d91:	0f b6 45 ff          	movzbl -0x1(%rbp),%eax
   140002d95:	88 45 c2             	mov    %al,-0x3e(%rbp)
   140002d98:	48 8d 55 c0          	lea    -0x40(%rbp),%rdx
   140002d9c:	48 8d 45 a0          	lea    -0x60(%rbp),%rax
   140002da0:	48 89 c1             	mov    %rax,%rcx
   140002da3:	e8 02 fa ff ff       	call   1400027aa <selfEatingSingleGame>
   140002da8:	0f b7 45 fd          	movzwl -0x3(%rbp),%eax
   140002dac:	66 89 45 a0          	mov    %ax,-0x60(%rbp)
   140002db0:	0f b6 45 ff          	movzbl -0x1(%rbp),%eax
   140002db4:	88 45 a2             	mov    %al,-0x5e(%rbp)
   140002db7:	48 8d 55 a0          	lea    -0x60(%rbp),%rdx
   140002dbb:	48 89 e8             	mov    %rbp,%rax
   140002dbe:	48 89 c1             	mov    %rax,%rcx
   140002dc1:	e8 02 f4 ff ff       	call   1400021c8 <grownSnake>
   140002dc6:	48 8d 4d a0          	lea    -0x60(%rbp),%rcx
   140002dca:	0f b7 45 fd          	movzwl -0x3(%rbp),%eax
   140002dce:	66 89 45 b0          	mov    %ax,-0x50(%rbp)
   140002dd2:	0f b6 45 ff          	movzbl -0x1(%rbp),%eax
   140002dd6:	88 45 b2             	mov    %al,-0x4e(%rbp)
   140002dd9:	48 8b 45 00          	mov    0x0(%rbp),%rax
   140002ddd:	48 8b 55 08          	mov    0x8(%rbp),%rdx
   140002de1:	48 89 45 c0          	mov    %rax,-0x40(%rbp)
   140002de5:	48 89 55 c8          	mov    %rdx,-0x38(%rbp)
   140002de9:	48 8b 45 10          	mov    0x10(%rbp),%rax
   140002ded:	48 89 45 d0          	mov    %rax,-0x30(%rbp)
   140002df1:	4c 8d 45 20          	lea    0x20(%rbp),%r8
   140002df5:	48 8d 55 c0          	lea    -0x40(%rbp),%rdx
   140002df9:	48 8d 45 b0          	lea    -0x50(%rbp),%rax
   140002dfd:	4d 89 c1             	mov    %r8,%r9
   140002e00:	49 89 d0             	mov    %rdx,%r8
   140002e03:	48 89 c2             	mov    %rax,%rdx
   140002e06:	e8 74 e9 ff ff       	call   14000177f <transferEatSingleGame>
   140002e0b:	0f b7 45 a0          	movzwl -0x60(%rbp),%eax
   140002e0f:	66 89 45 fd          	mov    %ax,-0x3(%rbp)
   140002e13:	0f b6 45 a2          	movzbl -0x5e(%rbp),%eax
   140002e17:	88 45 ff             	mov    %al,-0x1(%rbp)
   140002e1a:	0f b7 45 fd          	movzwl -0x3(%rbp),%eax
   140002e1e:	66 89 45 a0          	mov    %ax,-0x60(%rbp)
   140002e22:	0f b6 45 ff          	movzbl -0x1(%rbp),%eax
   140002e26:	88 45 a2             	mov    %al,-0x5e(%rbp)
   140002e29:	48 8d 45 a0          	lea    -0x60(%rbp),%rax
   140002e2d:	48 89 c1             	mov    %rax,%rcx
   140002e30:	e8 0c fd ff ff       	call   140002b41 <speedBoost>
   140002e35:	89 c1                	mov    %eax,%ecx
   140002e37:	48 8b 05 26 77 01 00 	mov    0x17726(%rip),%rax        # 14001a564 <__imp_Sleep>
   140002e3e:	ff d0                	call   *%rax
   140002e40:	0f b7 45 fd          	movzwl -0x3(%rbp),%eax
   140002e44:	66 89 45 a0          	mov    %ax,-0x60(%rbp)
   140002e48:	0f b6 45 ff          	movzbl -0x1(%rbp),%eax
   140002e4c:	88 45 a2             	mov    %al,-0x5e(%rbp)
   140002e4f:	48 8d 4d a0          	lea    -0x60(%rbp),%rcx
   140002e53:	48 89 ea             	mov    %rbp,%rdx
   140002e56:	48 8d 45 20          	lea    0x20(%rbp),%rax
   140002e5a:	49 89 c8             	mov    %rcx,%r8
   140002e5d:	48 89 c1             	mov    %rax,%rcx
   140002e60:	e8 86 eb ff ff       	call   1400019eb <fillMatrixSingleGame>
   140002e65:	48 8d 0d 59 22 01 00 	lea    0x12259(%rip),%rcx        # 1400150c5 <.rdata+0xc5>
   140002e6c:	e8 0f 00 01 00       	call   140012e80 <system>
   140002e71:	0f b7 45 fd          	movzwl -0x3(%rbp),%eax
   140002e75:	66 89 45 a0          	mov    %ax,-0x60(%rbp)
   140002e79:	0f b6 45 ff          	movzbl -0x1(%rbp),%eax
   140002e7d:	88 45 a2             	mov    %al,-0x5e(%rbp)
   140002e80:	48 8d 4d a0          	lea    -0x60(%rbp),%rcx
   140002e84:	48 89 ea             	mov    %rbp,%rdx
   140002e87:	48 8d 45 20          	lea    0x20(%rbp),%rax
   140002e8b:	49 89 c8             	mov    %rcx,%r8
   140002e8e:	48 89 c1             	mov    %rax,%rcx
   140002e91:	e8 51 ef ff ff       	call   140001de7 <printMatrixSingleGame>
   140002e96:	0f b7 45 fd          	movzwl -0x3(%rbp),%eax
   140002e9a:	66 89 45 a0          	mov    %ax,-0x60(%rbp)
   140002e9e:	0f b6 45 ff          	movzbl -0x1(%rbp),%eax
   140002ea2:	88 45 a2             	mov    %al,-0x5e(%rbp)
   140002ea5:	48 8d 45 a0          	lea    -0x60(%rbp),%rax
   140002ea9:	48 89 c1             	mov    %rax,%rcx
   140002eac:	e8 1a fc ff ff       	call   140002acb <printLevel>
   140002eb1:	e9 18 fe ff ff       	jmp    140002cce <singleGame+0xbe>

0000000140002eb6 <playerVsAiGame>:
   140002eb6:	55                   	push   %rbp
   140002eb7:	48 81 ec e0 01 00 00 	sub    $0x1e0,%rsp
   140002ebe:	48 8d ac 24 80 00 00 	lea    0x80(%rsp),%rbp
   140002ec5:	00 
   140002ec6:	48 8d 45 50          	lea    0x50(%rbp),%rax
   140002eca:	41 b9 02 00 00 00    	mov    $0x2,%r9d
   140002ed0:	41 b8 07 00 00 00    	mov    $0x7,%r8d
   140002ed6:	ba 07 00 00 00       	mov    $0x7,%edx
   140002edb:	48 89 c1             	mov    %rax,%rcx
   140002ede:	e8 dd e9 ff ff       	call   1400018c0 <initSnake>
   140002ee3:	48 8d 0d f6 23 01 00 	lea    0x123f6(%rip),%rcx        # 1400152e0 <.rdata+0x2e0>
   140002eea:	e8 51 e6 ff ff       	call   140001540 <printf>
   140002eef:	48 8d 45 50          	lea    0x50(%rbp),%rax
   140002ef3:	48 89 c1             	mov    %rax,%rcx
   140002ef6:	e8 3c e7 ff ff       	call   140001637 <setSnakeColor>
   140002efb:	48 8d 45 30          	lea    0x30(%rbp),%rax
   140002eff:	41 b9 02 00 00 00    	mov    $0x2,%r9d
   140002f05:	41 b8 0a 00 00 00    	mov    $0xa,%r8d
   140002f0b:	ba 03 00 00 00       	mov    $0x3,%edx
   140002f10:	48 89 c1             	mov    %rax,%rcx
   140002f13:	e8 a8 e9 ff ff       	call   1400018c0 <initSnake>
   140002f18:	48 8d 0d e9 23 01 00 	lea    0x123e9(%rip),%rcx        # 140015308 <.rdata+0x308>
   140002f1f:	e8 1c e6 ff ff       	call   140001540 <printf>
   140002f24:	48 8d 45 30          	lea    0x30(%rbp),%rax
   140002f28:	48 89 c1             	mov    %rax,%rcx
   140002f2b:	e8 07 e7 ff ff       	call   140001637 <setSnakeColor>
   140002f30:	48 8d 45 2d          	lea    0x2d(%rbp),%rax
   140002f34:	48 89 c1             	mov    %rax,%rcx
   140002f37:	e8 ae e6 ff ff       	call   1400015ea <initEat>
   140002f3c:	0f b7 45 2d          	movzwl 0x2d(%rbp),%eax
   140002f40:	66 89 45 10          	mov    %ax,0x10(%rbp)
   140002f44:	0f b6 45 2f          	movzbl 0x2f(%rbp),%eax
   140002f48:	88 45 12             	mov    %al,0x12(%rbp)
   140002f4b:	4c 8d 45 10          	lea    0x10(%rbp),%r8
   140002f4f:	48 8d 4d 30          	lea    0x30(%rbp),%rcx
   140002f53:	48 8d 55 50          	lea    0x50(%rbp),%rdx
   140002f57:	48 8d 45 70          	lea    0x70(%rbp),%rax
   140002f5b:	4d 89 c1             	mov    %r8,%r9
   140002f5e:	49 89 c8             	mov    %rcx,%r8
   140002f61:	48 89 c1             	mov    %rax,%rcx
   140002f64:	e8 37 ec ff ff       	call   140001ba0 <fillMatrixAiGame>
   140002f69:	0f b7 45 2d          	movzwl 0x2d(%rbp),%eax
   140002f6d:	66 89 45 10          	mov    %ax,0x10(%rbp)
   140002f71:	0f b6 45 2f          	movzbl 0x2f(%rbp),%eax
   140002f75:	88 45 12             	mov    %al,0x12(%rbp)
   140002f78:	4c 8d 45 10          	lea    0x10(%rbp),%r8
   140002f7c:	48 8d 4d 30          	lea    0x30(%rbp),%rcx
   140002f80:	48 8d 55 50          	lea    0x50(%rbp),%rdx
   140002f84:	48 8d 45 70          	lea    0x70(%rbp),%rax
   140002f88:	4d 89 c1             	mov    %r8,%r9
   140002f8b:	49 89 c8             	mov    %rcx,%r8
   140002f8e:	48 89 c1             	mov    %rax,%rcx
   140002f91:	e8 fa ef ff ff       	call   140001f90 <printMatrixAiGame>
   140002f96:	0f b7 45 2d          	movzwl 0x2d(%rbp),%eax
   140002f9a:	66 89 45 10          	mov    %ax,0x10(%rbp)
   140002f9e:	0f b6 45 2f          	movzbl 0x2f(%rbp),%eax
   140002fa2:	88 45 12             	mov    %al,0x12(%rbp)
   140002fa5:	48 8d 45 10          	lea    0x10(%rbp),%rax
   140002fa9:	48 89 c1             	mov    %rax,%rcx
   140002fac:	e8 1a fb ff ff       	call   140002acb <printLevel>
   140002fb1:	c7 85 5c 01 00 00 01 	movl   $0x1,0x15c(%rbp)
   140002fb8:	00 00 00 
   140002fbb:	e8 68 ff 00 00       	call   140012f28 <clock>
   140002fc0:	89 85 58 01 00 00    	mov    %eax,0x158(%rbp)
   140002fc6:	e8 a5 ff 00 00       	call   140012f70 <kbhit>
   140002fcb:	85 c0                	test   %eax,%eax
   140002fcd:	74 46                	je     140003015 <playerVsAiGame+0x15f>
   140002fcf:	48 8b 45 50          	mov    0x50(%rbp),%rax
   140002fd3:	48 8b 55 58          	mov    0x58(%rbp),%rdx
   140002fd7:	48 89 45 f0          	mov    %rax,-0x10(%rbp)
   140002fdb:	48 89 55 f8          	mov    %rdx,-0x8(%rbp)
   140002fdf:	48 8b 45 60          	mov    0x60(%rbp),%rax
   140002fe3:	48 89 45 00          	mov    %rax,0x0(%rbp)
   140002fe7:	0f b7 45 2d          	movzwl 0x2d(%rbp),%eax
   140002feb:	66 89 45 10          	mov    %ax,0x10(%rbp)
   140002fef:	0f b6 45 2f          	movzbl 0x2f(%rbp),%eax
   140002ff3:	88 45 12             	mov    %al,0x12(%rbp)
   140002ff6:	48 8d 4d 10          	lea    0x10(%rbp),%rcx
   140002ffa:	8b 95 5c 01 00 00    	mov    0x15c(%rbp),%edx
   140003000:	48 8d 45 f0          	lea    -0x10(%rbp),%rax
   140003004:	49 89 c8             	mov    %rcx,%r8
   140003007:	48 89 c1             	mov    %rax,%rcx
   14000300a:	e8 86 f5 ff ff       	call   140002595 <keyProcessing>
   14000300f:	89 85 5c 01 00 00    	mov    %eax,0x15c(%rbp)
   140003015:	48 8d 4d f0          	lea    -0x10(%rbp),%rcx
   140003019:	48 8b 45 50          	mov    0x50(%rbp),%rax
   14000301d:	48 8b 55 58          	mov    0x58(%rbp),%rdx
   140003021:	48 89 45 d0          	mov    %rax,-0x30(%rbp)
   140003025:	48 89 55 d8          	mov    %rdx,-0x28(%rbp)
   140003029:	48 8b 45 60          	mov    0x60(%rbp),%rax
   14000302d:	48 89 45 e0          	mov    %rax,-0x20(%rbp)
   140003031:	8b 95 5c 01 00 00    	mov    0x15c(%rbp),%edx
   140003037:	48 8d 45 d0          	lea    -0x30(%rbp),%rax
   14000303b:	41 89 d0             	mov    %edx,%r8d
   14000303e:	48 89 c2             	mov    %rax,%rdx
   140003041:	e8 ca f2 ff ff       	call   140002310 <moveSnake>
   140003046:	48 8b 45 f0          	mov    -0x10(%rbp),%rax
   14000304a:	48 8b 55 f8          	mov    -0x8(%rbp),%rdx
   14000304e:	48 89 45 50          	mov    %rax,0x50(%rbp)
   140003052:	48 89 55 58          	mov    %rdx,0x58(%rbp)
   140003056:	48 8b 45 00          	mov    0x0(%rbp),%rax
   14000305a:	48 89 45 60          	mov    %rax,0x60(%rbp)
   14000305e:	0f b7 45 2d          	movzwl 0x2d(%rbp),%eax
   140003062:	66 89 45 d0          	mov    %ax,-0x30(%rbp)
   140003066:	0f b6 45 2f          	movzbl 0x2f(%rbp),%eax
   14000306a:	88 45 d2             	mov    %al,-0x2e(%rbp)
   14000306d:	48 8d 55 d0          	lea    -0x30(%rbp),%rdx
   140003071:	48 8d 45 30          	lea    0x30(%rbp),%rax
   140003075:	48 89 c1             	mov    %rax,%rcx
   140003078:	e8 ee fa ff ff       	call   140002b6b <autoChangeDirection>
   14000307d:	48 8d 4d d0          	lea    -0x30(%rbp),%rcx
   140003081:	48 8b 45 30          	mov    0x30(%rbp),%rax
   140003085:	48 8b 55 38          	mov    0x38(%rbp),%rdx
   140003089:	48 89 45 f0          	mov    %rax,-0x10(%rbp)
   14000308d:	48 89 55 f8          	mov    %rdx,-0x8(%rbp)
   140003091:	48 8b 45 40          	mov    0x40(%rbp),%rax
   140003095:	48 89 45 00          	mov    %rax,0x0(%rbp)
   140003099:	48 8d 45 f0          	lea    -0x10(%rbp),%rax
   14000309d:	48 89 c2             	mov    %rax,%rdx
   1400030a0:	e8 77 f3 ff ff       	call   14000241c <moveSnakeII>
   1400030a5:	48 8b 45 d0          	mov    -0x30(%rbp),%rax
   1400030a9:	48 8b 55 d8          	mov    -0x28(%rbp),%rdx
   1400030ad:	48 89 45 30          	mov    %rax,0x30(%rbp)
   1400030b1:	48 89 55 38          	mov    %rdx,0x38(%rbp)
   1400030b5:	48 8b 45 e0          	mov    -0x20(%rbp),%rax
   1400030b9:	48 89 45 40          	mov    %rax,0x40(%rbp)
   1400030bd:	48 8b 45 50          	mov    0x50(%rbp),%rax
   1400030c1:	48 8b 55 58          	mov    0x58(%rbp),%rdx
   1400030c5:	48 89 45 d0          	mov    %rax,-0x30(%rbp)
   1400030c9:	48 89 55 d8          	mov    %rdx,-0x28(%rbp)
   1400030cd:	48 8b 45 60          	mov    0x60(%rbp),%rax
   1400030d1:	48 89 45 e0          	mov    %rax,-0x20(%rbp)
   1400030d5:	48 8b 45 30          	mov    0x30(%rbp),%rax
   1400030d9:	48 8b 55 38          	mov    0x38(%rbp),%rdx
   1400030dd:	48 89 45 f0          	mov    %rax,-0x10(%rbp)
   1400030e1:	48 89 55 f8          	mov    %rdx,-0x8(%rbp)
   1400030e5:	48 8b 45 40          	mov    0x40(%rbp),%rax
   1400030e9:	48 89 45 00          	mov    %rax,0x0(%rbp)
   1400030ed:	0f b7 45 2d          	movzwl 0x2d(%rbp),%eax
   1400030f1:	66 89 45 10          	mov    %ax,0x10(%rbp)
   1400030f5:	0f b6 45 2f          	movzbl 0x2f(%rbp),%eax
   1400030f9:	88 45 12             	mov    %al,0x12(%rbp)
   1400030fc:	48 8d 4d 10          	lea    0x10(%rbp),%rcx
   140003100:	48 8d 55 f0          	lea    -0x10(%rbp),%rdx
   140003104:	48 8d 45 d0          	lea    -0x30(%rbp),%rax
   140003108:	49 89 c8             	mov    %rcx,%r8
   14000310b:	48 89 c1             	mov    %rax,%rcx
   14000310e:	e8 9d f7 ff ff       	call   1400028b0 <selfEatingAiGame>
   140003113:	0f b7 45 2d          	movzwl 0x2d(%rbp),%eax
   140003117:	66 89 45 d0          	mov    %ax,-0x30(%rbp)
   14000311b:	0f b6 45 2f          	movzbl 0x2f(%rbp),%eax
   14000311f:	88 45 d2             	mov    %al,-0x2e(%rbp)
   140003122:	48 8d 55 d0          	lea    -0x30(%rbp),%rdx
   140003126:	48 8d 45 50          	lea    0x50(%rbp),%rax
   14000312a:	48 89 c1             	mov    %rax,%rcx
   14000312d:	e8 96 f0 ff ff       	call   1400021c8 <grownSnake>
   140003132:	0f b7 45 2d          	movzwl 0x2d(%rbp),%eax
   140003136:	66 89 45 d0          	mov    %ax,-0x30(%rbp)
   14000313a:	0f b6 45 2f          	movzbl 0x2f(%rbp),%eax
   14000313e:	88 45 d2             	mov    %al,-0x2e(%rbp)
   140003141:	48 8d 55 d0          	lea    -0x30(%rbp),%rdx
   140003145:	48 8d 45 30          	lea    0x30(%rbp),%rax
   140003149:	48 89 c1             	mov    %rax,%rcx
   14000314c:	e8 77 f0 ff ff       	call   1400021c8 <grownSnake>
   140003151:	48 8d 4d d0          	lea    -0x30(%rbp),%rcx
   140003155:	0f b7 45 2d          	movzwl 0x2d(%rbp),%eax
   140003159:	66 89 45 e0          	mov    %ax,-0x20(%rbp)
   14000315d:	0f b6 45 2f          	movzbl 0x2f(%rbp),%eax
   140003161:	88 45 e2             	mov    %al,-0x1e(%rbp)
   140003164:	48 8b 45 50          	mov    0x50(%rbp),%rax
   140003168:	48 8b 55 58          	mov    0x58(%rbp),%rdx
   14000316c:	48 89 45 f0          	mov    %rax,-0x10(%rbp)
   140003170:	48 89 55 f8          	mov    %rdx,-0x8(%rbp)
   140003174:	48 8b 45 60          	mov    0x60(%rbp),%rax
   140003178:	48 89 45 00          	mov    %rax,0x0(%rbp)
   14000317c:	48 8b 45 30          	mov    0x30(%rbp),%rax
   140003180:	48 8b 55 38          	mov    0x38(%rbp),%rdx
   140003184:	48 89 45 b0          	mov    %rax,-0x50(%rbp)
   140003188:	48 89 55 b8          	mov    %rdx,-0x48(%rbp)
   14000318c:	48 8b 45 40          	mov    0x40(%rbp),%rax
   140003190:	48 89 45 c0          	mov    %rax,-0x40(%rbp)
   140003194:	4c 8d 4d b0          	lea    -0x50(%rbp),%r9
   140003198:	4c 8d 45 f0          	lea    -0x10(%rbp),%r8
   14000319c:	48 8d 45 e0          	lea    -0x20(%rbp),%rax
   1400031a0:	48 8d 55 70          	lea    0x70(%rbp),%rdx
   1400031a4:	48 89 54 24 20       	mov    %rdx,0x20(%rsp)
   1400031a9:	48 89 c2             	mov    %rax,%rdx
   1400031ac:	e8 63 e6 ff ff       	call   140001814 <transferEatAiGame>
   1400031b1:	0f b7 45 d0          	movzwl -0x30(%rbp),%eax
   1400031b5:	66 89 45 2d          	mov    %ax,0x2d(%rbp)
   1400031b9:	0f b6 45 d2          	movzbl -0x2e(%rbp),%eax
   1400031bd:	88 45 2f             	mov    %al,0x2f(%rbp)
   1400031c0:	0f b7 45 2d          	movzwl 0x2d(%rbp),%eax
   1400031c4:	66 89 45 10          	mov    %ax,0x10(%rbp)
   1400031c8:	0f b6 45 2f          	movzbl 0x2f(%rbp),%eax
   1400031cc:	88 45 12             	mov    %al,0x12(%rbp)
   1400031cf:	48 8d 45 10          	lea    0x10(%rbp),%rax
   1400031d3:	48 89 c1             	mov    %rax,%rcx
   1400031d6:	e8 66 f9 ff ff       	call   140002b41 <speedBoost>
   1400031db:	89 c1                	mov    %eax,%ecx
   1400031dd:	48 8b 05 80 73 01 00 	mov    0x17380(%rip),%rax        # 14001a564 <__imp_Sleep>
   1400031e4:	ff d0                	call   *%rax
   1400031e6:	0f b7 45 2d          	movzwl 0x2d(%rbp),%eax
   1400031ea:	66 89 45 b0          	mov    %ax,-0x50(%rbp)
   1400031ee:	0f b6 45 2f          	movzbl 0x2f(%rbp),%eax
   1400031f2:	88 45 b2             	mov    %al,-0x4e(%rbp)
   1400031f5:	4c 8d 45 b0          	lea    -0x50(%rbp),%r8
   1400031f9:	48 8d 4d 30          	lea    0x30(%rbp),%rcx
   1400031fd:	48 8d 55 50          	lea    0x50(%rbp),%rdx
   140003201:	48 8d 45 70          	lea    0x70(%rbp),%rax
   140003205:	4d 89 c1             	mov    %r8,%r9
   140003208:	49 89 c8             	mov    %rcx,%r8
   14000320b:	48 89 c1             	mov    %rax,%rcx
   14000320e:	e8 8d e9 ff ff       	call   140001ba0 <fillMatrixAiGame>
   140003213:	48 8d 0d ab 1e 01 00 	lea    0x11eab(%rip),%rcx        # 1400150c5 <.rdata+0xc5>
   14000321a:	e8 61 fc 00 00       	call   140012e80 <system>
   14000321f:	0f b7 45 2d          	movzwl 0x2d(%rbp),%eax
   140003223:	66 89 45 b0          	mov    %ax,-0x50(%rbp)
   140003227:	0f b6 45 2f          	movzbl 0x2f(%rbp),%eax
   14000322b:	88 45 b2             	mov    %al,-0x4e(%rbp)
   14000322e:	4c 8d 45 b0          	lea    -0x50(%rbp),%r8
   140003232:	48 8d 4d 30          	lea    0x30(%rbp),%rcx
   140003236:	48 8d 55 50          	lea    0x50(%rbp),%rdx
   14000323a:	48 8d 45 70          	lea    0x70(%rbp),%rax
   14000323e:	4d 89 c1             	mov    %r8,%r9
   140003241:	49 89 c8             	mov    %rcx,%r8
   140003244:	48 89 c1             	mov    %rax,%rcx
   140003247:	e8 44 ed ff ff       	call   140001f90 <printMatrixAiGame>
   14000324c:	0f b7 45 2d          	movzwl 0x2d(%rbp),%eax
   140003250:	66 89 45 b0          	mov    %ax,-0x50(%rbp)
   140003254:	0f b6 45 2f          	movzbl 0x2f(%rbp),%eax
   140003258:	88 45 b2             	mov    %al,-0x4e(%rbp)
   14000325b:	48 8d 45 b0          	lea    -0x50(%rbp),%rax
   14000325f:	48 89 c1             	mov    %rax,%rcx
   140003262:	e8 64 f8 ff ff       	call   140002acb <printLevel>
   140003267:	e9 4f fd ff ff       	jmp    140002fbb <playerVsAiGame+0x105>

000000014000326c <main>:
   14000326c:	55                   	push   %rbp
   14000326d:	48 89 e5             	mov    %rsp,%rbp
   140003270:	48 83 ec 30          	sub    $0x30,%rsp
   140003274:	e8 e7 00 00 00       	call   140003360 <__main>
   140003279:	e8 f5 e6 ff ff       	call   140001973 <startMenu>
   14000327e:	88 45 ff             	mov    %al,-0x1(%rbp)
   140003281:	0f be 45 ff          	movsbl -0x1(%rbp),%eax
   140003285:	83 f8 31             	cmp    $0x31,%eax
   140003288:	74 07                	je     140003291 <main+0x25>
   14000328a:	83 f8 32             	cmp    $0x32,%eax
   14000328d:	74 09                	je     140003298 <main+0x2c>
   14000328f:	eb 0d                	jmp    14000329e <main+0x32>
   140003291:	e8 7a f9 ff ff       	call   140002c10 <singleGame>
   140003296:	eb 06                	jmp    14000329e <main+0x32>
   140003298:	e8 19 fc ff ff       	call   140002eb6 <playerVsAiGame>
   14000329d:	90                   	nop
   14000329e:	b8 00 00 00 00       	mov    $0x0,%eax
   1400032a3:	48 83 c4 30          	add    $0x30,%rsp
   1400032a7:	5d                   	pop    %rbp
   1400032a8:	c3                   	ret    
   1400032a9:	90                   	nop
   1400032aa:	90                   	nop
   1400032ab:	90                   	nop
   1400032ac:	90                   	nop
   1400032ad:	90                   	nop
   1400032ae:	90                   	nop
   1400032af:	90                   	nop

00000001400032b0 <__do_global_dtors>:
   1400032b0:	48 83 ec 28          	sub    $0x28,%rsp
   1400032b4:	48 8b 05 55 0d 01 00 	mov    0x10d55(%rip),%rax        # 140014010 <p.0>
   1400032bb:	48 8b 00             	mov    (%rax),%rax
   1400032be:	48 85 c0             	test   %rax,%rax
   1400032c1:	74 22                	je     1400032e5 <__do_global_dtors+0x35>
   1400032c3:	0f 1f 44 00 00       	nopl   0x0(%rax,%rax,1)
   1400032c8:	ff d0                	call   *%rax
   1400032ca:	48 8b 05 3f 0d 01 00 	mov    0x10d3f(%rip),%rax        # 140014010 <p.0>
   1400032d1:	48 8d 50 08          	lea    0x8(%rax),%rdx
   1400032d5:	48 8b 40 08          	mov    0x8(%rax),%rax
   1400032d9:	48 89 15 30 0d 01 00 	mov    %rdx,0x10d30(%rip)        # 140014010 <p.0>
   1400032e0:	48 85 c0             	test   %rax,%rax
   1400032e3:	75 e3                	jne    1400032c8 <__do_global_dtors+0x18>
   1400032e5:	48 83 c4 28          	add    $0x28,%rsp
   1400032e9:	c3                   	ret    
   1400032ea:	66 0f 1f 44 00 00    	nopw   0x0(%rax,%rax,1)

00000001400032f0 <__do_global_ctors>:
   1400032f0:	56                   	push   %rsi
   1400032f1:	53                   	push   %rbx
   1400032f2:	48 83 ec 28          	sub    $0x28,%rsp
   1400032f6:	48 8b 15 03 29 01 00 	mov    0x12903(%rip),%rdx        # 140015c00 <.refptr.__CTOR_LIST__>
   1400032fd:	48 8b 02             	mov    (%rdx),%rax
   140003300:	89 c1                	mov    %eax,%ecx
   140003302:	83 f8 ff             	cmp    $0xffffffff,%eax
   140003305:	74 39                	je     140003340 <__do_global_ctors+0x50>
   140003307:	85 c9                	test   %ecx,%ecx
   140003309:	74 20                	je     14000332b <__do_global_ctors+0x3b>
   14000330b:	89 c8                	mov    %ecx,%eax
   14000330d:	83 e9 01             	sub    $0x1,%ecx
   140003310:	48 8d 1c c2          	lea    (%rdx,%rax,8),%rbx
   140003314:	48 29 c8             	sub    %rcx,%rax
   140003317:	48 8d 74 c2 f8       	lea    -0x8(%rdx,%rax,8),%rsi
   14000331c:	0f 1f 40 00          	nopl   0x0(%rax)
   140003320:	ff 13                	call   *(%rbx)
   140003322:	48 83 eb 08          	sub    $0x8,%rbx
   140003326:	48 39 f3             	cmp    %rsi,%rbx
   140003329:	75 f5                	jne    140003320 <__do_global_ctors+0x30>
   14000332b:	48 8d 0d 7e ff ff ff 	lea    -0x82(%rip),%rcx        # 1400032b0 <__do_global_dtors>
   140003332:	48 83 c4 28          	add    $0x28,%rsp
   140003336:	5b                   	pop    %rbx
   140003337:	5e                   	pop    %rsi
   140003338:	e9 c3 e1 ff ff       	jmp    140001500 <atexit>
   14000333d:	0f 1f 00             	nopl   (%rax)
   140003340:	31 c0                	xor    %eax,%eax
   140003342:	66 0f 1f 44 00 00    	nopw   0x0(%rax,%rax,1)
   140003348:	44 8d 40 01          	lea    0x1(%rax),%r8d
   14000334c:	89 c1                	mov    %eax,%ecx
   14000334e:	4a 83 3c c2 00       	cmpq   $0x0,(%rdx,%r8,8)
   140003353:	4c 89 c0             	mov    %r8,%rax
   140003356:	75 f0                	jne    140003348 <__do_global_ctors+0x58>
   140003358:	eb ad                	jmp    140003307 <__do_global_ctors+0x17>
   14000335a:	66 0f 1f 44 00 00    	nopw   0x0(%rax,%rax,1)

0000000140003360 <__main>:
   140003360:	8b 05 da 5c 01 00    	mov    0x15cda(%rip),%eax        # 140019040 <initialized>
   140003366:	85 c0                	test   %eax,%eax
   140003368:	74 06                	je     140003370 <__main+0x10>
   14000336a:	c3                   	ret    
   14000336b:	0f 1f 44 00 00       	nopl   0x0(%rax,%rax,1)
   140003370:	c7 05 c6 5c 01 00 01 	movl   $0x1,0x15cc6(%rip)        # 140019040 <initialized>
   140003377:	00 00 00 
   14000337a:	e9 71 ff ff ff       	jmp    1400032f0 <__do_global_ctors>
   14000337f:	90                   	nop

0000000140003380 <my_lconv_init>:
   140003380:	48 ff 25 6d 72 01 00 	rex.W jmp *0x1726d(%rip)        # 14001a5f4 <__imp___lconv_init>
   140003387:	90                   	nop
   140003388:	90                   	nop
   140003389:	90                   	nop
   14000338a:	90                   	nop
   14000338b:	90                   	nop
   14000338c:	90                   	nop
   14000338d:	90                   	nop
   14000338e:	90                   	nop
   14000338f:	90                   	nop

0000000140003390 <_setargv>:
   140003390:	31 c0                	xor    %eax,%eax
   140003392:	c3                   	ret    
   140003393:	90                   	nop
   140003394:	90                   	nop
   140003395:	90                   	nop
   140003396:	90                   	nop
   140003397:	90                   	nop
   140003398:	90                   	nop
   140003399:	90                   	nop
   14000339a:	90                   	nop
   14000339b:	90                   	nop
   14000339c:	90                   	nop
   14000339d:	90                   	nop
   14000339e:	90                   	nop
   14000339f:	90                   	nop

00000001400033a0 <__dyn_tls_dtor>:
   1400033a0:	48 83 ec 28          	sub    $0x28,%rsp
   1400033a4:	83 fa 03             	cmp    $0x3,%edx
   1400033a7:	74 17                	je     1400033c0 <__dyn_tls_dtor+0x20>
   1400033a9:	85 d2                	test   %edx,%edx
   1400033ab:	74 13                	je     1400033c0 <__dyn_tls_dtor+0x20>
   1400033ad:	b8 01 00 00 00       	mov    $0x1,%eax
   1400033b2:	48 83 c4 28          	add    $0x28,%rsp
   1400033b6:	c3                   	ret    
   1400033b7:	66 0f 1f 84 00 00 00 	nopw   0x0(%rax,%rax,1)
   1400033be:	00 00 
   1400033c0:	e8 bb 09 00 00       	call   140003d80 <__mingw_TLScallback>
   1400033c5:	b8 01 00 00 00       	mov    $0x1,%eax
   1400033ca:	48 83 c4 28          	add    $0x28,%rsp
   1400033ce:	c3                   	ret    
   1400033cf:	90                   	nop

00000001400033d0 <__dyn_tls_init>:
   1400033d0:	56                   	push   %rsi
   1400033d1:	53                   	push   %rbx
   1400033d2:	48 83 ec 28          	sub    $0x28,%rsp
   1400033d6:	48 8b 05 03 28 01 00 	mov    0x12803(%rip),%rax        # 140015be0 <.refptr._CRT_MT>
   1400033dd:	83 38 02             	cmpl   $0x2,(%rax)
   1400033e0:	74 06                	je     1400033e8 <__dyn_tls_init+0x18>
   1400033e2:	c7 00 02 00 00 00    	movl   $0x2,(%rax)
   1400033e8:	83 fa 02             	cmp    $0x2,%edx
   1400033eb:	74 13                	je     140003400 <__dyn_tls_init+0x30>
   1400033ed:	83 fa 01             	cmp    $0x1,%edx
   1400033f0:	74 4e                	je     140003440 <__dyn_tls_init+0x70>
   1400033f2:	b8 01 00 00 00       	mov    $0x1,%eax
   1400033f7:	48 83 c4 28          	add    $0x28,%rsp
   1400033fb:	5b                   	pop    %rbx
   1400033fc:	5e                   	pop    %rsi
   1400033fd:	c3                   	ret    
   1400033fe:	66 90                	xchg   %ax,%ax
   140003400:	48 8d 1d 61 8c 01 00 	lea    0x18c61(%rip),%rbx        # 14001c068 <__xd_z>
   140003407:	48 8d 35 5a 8c 01 00 	lea    0x18c5a(%rip),%rsi        # 14001c068 <__xd_z>
   14000340e:	48 39 de             	cmp    %rbx,%rsi
   140003411:	74 df                	je     1400033f2 <__dyn_tls_init+0x22>
   140003413:	0f 1f 44 00 00       	nopl   0x0(%rax,%rax,1)
   140003418:	48 8b 03             	mov    (%rbx),%rax
   14000341b:	48 85 c0             	test   %rax,%rax
   14000341e:	74 02                	je     140003422 <__dyn_tls_init+0x52>
   140003420:	ff d0                	call   *%rax
   140003422:	48 83 c3 08          	add    $0x8,%rbx
   140003426:	48 39 de             	cmp    %rbx,%rsi
   140003429:	75 ed                	jne    140003418 <__dyn_tls_init+0x48>
   14000342b:	b8 01 00 00 00       	mov    $0x1,%eax
   140003430:	48 83 c4 28          	add    $0x28,%rsp
   140003434:	5b                   	pop    %rbx
   140003435:	5e                   	pop    %rsi
   140003436:	c3                   	ret    
   140003437:	66 0f 1f 84 00 00 00 	nopw   0x0(%rax,%rax,1)
   14000343e:	00 00 
   140003440:	e8 3b 09 00 00       	call   140003d80 <__mingw_TLScallback>
   140003445:	b8 01 00 00 00       	mov    $0x1,%eax
   14000344a:	48 83 c4 28          	add    $0x28,%rsp
   14000344e:	5b                   	pop    %rbx
   14000344f:	5e                   	pop    %rsi
   140003450:	c3                   	ret    
   140003451:	66 66 2e 0f 1f 84 00 	data16 cs nopw 0x0(%rax,%rax,1)
   140003458:	00 00 00 00 
   14000345c:	0f 1f 40 00          	nopl   0x0(%rax)

0000000140003460 <__tlregdtor>:
   140003460:	31 c0                	xor    %eax,%eax
   140003462:	c3                   	ret    
   140003463:	90                   	nop
   140003464:	90                   	nop
   140003465:	90                   	nop
   140003466:	90                   	nop
   140003467:	90                   	nop
   140003468:	90                   	nop
   140003469:	90                   	nop
   14000346a:	90                   	nop
   14000346b:	90                   	nop
   14000346c:	90                   	nop
   14000346d:	90                   	nop
   14000346e:	90                   	nop
   14000346f:	90                   	nop

0000000140003470 <_matherr>:
   140003470:	56                   	push   %rsi
   140003471:	53                   	push   %rbx
   140003472:	48 83 ec 78          	sub    $0x78,%rsp
   140003476:	0f 29 74 24 40       	movaps %xmm6,0x40(%rsp)
   14000347b:	0f 29 7c 24 50       	movaps %xmm7,0x50(%rsp)
   140003480:	44 0f 29 44 24 60    	movaps %xmm8,0x60(%rsp)
   140003486:	83 39 06             	cmpl   $0x6,(%rcx)
   140003489:	0f 87 cd 00 00 00    	ja     14000355c <_matherr+0xec>
   14000348f:	8b 01                	mov    (%rcx),%eax
   140003491:	48 8d 15 2c 20 01 00 	lea    0x1202c(%rip),%rdx        # 1400154c4 <.rdata+0x124>
   140003498:	48 63 04 82          	movslq (%rdx,%rax,4),%rax
   14000349c:	48 01 d0             	add    %rdx,%rax
   14000349f:	ff e0                	jmp    *%rax
   1400034a1:	0f 1f 80 00 00 00 00 	nopl   0x0(%rax)
   1400034a8:	48 8d 1d c7 1f 01 00 	lea    0x11fc7(%rip),%rbx        # 140015476 <.rdata+0xd6>
   1400034af:	f2 44 0f 10 41 20    	movsd  0x20(%rcx),%xmm8
   1400034b5:	f2 0f 10 79 18       	movsd  0x18(%rcx),%xmm7
   1400034ba:	f2 0f 10 71 10       	movsd  0x10(%rcx),%xmm6
   1400034bf:	48 8b 71 08          	mov    0x8(%rcx),%rsi
   1400034c3:	b9 02 00 00 00       	mov    $0x2,%ecx
   1400034c8:	e8 43 00 01 00       	call   140013510 <__acrt_iob_func>
   1400034cd:	f2 44 0f 11 44 24 30 	movsd  %xmm8,0x30(%rsp)
   1400034d4:	49 89 d8             	mov    %rbx,%r8
   1400034d7:	48 8d 15 ba 1f 01 00 	lea    0x11fba(%rip),%rdx        # 140015498 <.rdata+0xf8>
   1400034de:	f2 0f 11 7c 24 28    	movsd  %xmm7,0x28(%rsp)
   1400034e4:	48 89 c1             	mov    %rax,%rcx
   1400034e7:	49 89 f1             	mov    %rsi,%r9
   1400034ea:	f2 0f 11 74 24 20    	movsd  %xmm6,0x20(%rsp)
   1400034f0:	e8 1b fa 00 00       	call   140012f10 <fprintf>
   1400034f5:	90                   	nop
   1400034f6:	0f 28 74 24 40       	movaps 0x40(%rsp),%xmm6
   1400034fb:	0f 28 7c 24 50       	movaps 0x50(%rsp),%xmm7
   140003500:	31 c0                	xor    %eax,%eax
   140003502:	44 0f 28 44 24 60    	movaps 0x60(%rsp),%xmm8
   140003508:	48 83 c4 78          	add    $0x78,%rsp
   14000350c:	5b                   	pop    %rbx
   14000350d:	5e                   	pop    %rsi
   14000350e:	c3                   	ret    
   14000350f:	90                   	nop
   140003510:	48 8d 1d 99 1e 01 00 	lea    0x11e99(%rip),%rbx        # 1400153b0 <.rdata+0x10>
   140003517:	eb 96                	jmp    1400034af <_matherr+0x3f>
   140003519:	0f 1f 80 00 00 00 00 	nopl   0x0(%rax)
   140003520:	48 8d 1d c9 1e 01 00 	lea    0x11ec9(%rip),%rbx        # 1400153f0 <.rdata+0x50>
   140003527:	eb 86                	jmp    1400034af <_matherr+0x3f>
   140003529:	0f 1f 80 00 00 00 00 	nopl   0x0(%rax)
   140003530:	48 8d 1d 99 1e 01 00 	lea    0x11e99(%rip),%rbx        # 1400153d0 <.rdata+0x30>
   140003537:	e9 73 ff ff ff       	jmp    1400034af <_matherr+0x3f>
   14000353c:	0f 1f 40 00          	nopl   0x0(%rax)
   140003540:	48 8d 1d f9 1e 01 00 	lea    0x11ef9(%rip),%rbx        # 140015440 <.rdata+0xa0>
   140003547:	e9 63 ff ff ff       	jmp    1400034af <_matherr+0x3f>
   14000354c:	0f 1f 40 00          	nopl   0x0(%rax)
   140003550:	48 8d 1d c1 1e 01 00 	lea    0x11ec1(%rip),%rbx        # 140015418 <.rdata+0x78>
   140003557:	e9 53 ff ff ff       	jmp    1400034af <_matherr+0x3f>
   14000355c:	48 8d 1d 3d 1e 01 00 	lea    0x11e3d(%rip),%rbx        # 1400153a0 <.rdata>
   140003563:	e9 47 ff ff ff       	jmp    1400034af <_matherr+0x3f>
   140003568:	90                   	nop
   140003569:	90                   	nop
   14000356a:	90                   	nop
   14000356b:	90                   	nop
   14000356c:	90                   	nop
   14000356d:	90                   	nop
   14000356e:	90                   	nop
   14000356f:	90                   	nop

0000000140003570 <_fpreset>:
   140003570:	db e3                	fninit 
   140003572:	c3                   	ret    
   140003573:	90                   	nop
   140003574:	90                   	nop
   140003575:	90                   	nop
   140003576:	90                   	nop
   140003577:	90                   	nop
   140003578:	90                   	nop
   140003579:	90                   	nop
   14000357a:	90                   	nop
   14000357b:	90                   	nop
   14000357c:	90                   	nop
   14000357d:	90                   	nop
   14000357e:	90                   	nop
   14000357f:	90                   	nop

0000000140003580 <__report_error>:
   140003580:	41 54                	push   %r12
   140003582:	53                   	push   %rbx
   140003583:	48 83 ec 38          	sub    $0x38,%rsp
   140003587:	49 89 cc             	mov    %rcx,%r12
   14000358a:	48 8d 44 24 58       	lea    0x58(%rsp),%rax
   14000358f:	b9 02 00 00 00       	mov    $0x2,%ecx
   140003594:	48 89 54 24 58       	mov    %rdx,0x58(%rsp)
   140003599:	4c 89 44 24 60       	mov    %r8,0x60(%rsp)
   14000359e:	4c 89 4c 24 68       	mov    %r9,0x68(%rsp)
   1400035a3:	48 89 44 24 28       	mov    %rax,0x28(%rsp)
   1400035a8:	e8 63 ff 00 00       	call   140013510 <__acrt_iob_func>
   1400035ad:	41 b8 1b 00 00 00    	mov    $0x1b,%r8d
   1400035b3:	ba 01 00 00 00       	mov    $0x1,%edx
   1400035b8:	48 8d 0d 21 1f 01 00 	lea    0x11f21(%rip),%rcx        # 1400154e0 <.rdata>
   1400035bf:	49 89 c1             	mov    %rax,%r9
   1400035c2:	e8 31 f9 00 00       	call   140012ef8 <fwrite>
   1400035c7:	48 8b 5c 24 28       	mov    0x28(%rsp),%rbx
   1400035cc:	b9 02 00 00 00       	mov    $0x2,%ecx
   1400035d1:	e8 3a ff 00 00       	call   140013510 <__acrt_iob_func>
   1400035d6:	4c 89 e2             	mov    %r12,%rdx
   1400035d9:	48 89 c1             	mov    %rax,%rcx
   1400035dc:	49 89 d8             	mov    %rbx,%r8
   1400035df:	e8 94 f8 00 00       	call   140012e78 <vfprintf>
   1400035e4:	e8 4f f9 00 00       	call   140012f38 <abort>
   1400035e9:	90                   	nop
   1400035ea:	66 0f 1f 44 00 00    	nopw   0x0(%rax,%rax,1)

00000001400035f0 <mark_section_writable>:
   1400035f0:	41 54                	push   %r12
   1400035f2:	56                   	push   %rsi
   1400035f3:	53                   	push   %rbx
   1400035f4:	48 83 ec 50          	sub    $0x50,%rsp
   1400035f8:	48 63 1d b5 5a 01 00 	movslq 0x15ab5(%rip),%rbx        # 1400190b4 <maxSections>
   1400035ff:	49 89 cc             	mov    %rcx,%r12
   140003602:	85 db                	test   %ebx,%ebx
   140003604:	0f 8e 16 01 00 00    	jle    140003720 <mark_section_writable+0x130>
   14000360a:	48 8b 05 a7 5a 01 00 	mov    0x15aa7(%rip),%rax        # 1400190b8 <the_secs>
   140003611:	31 c9                	xor    %ecx,%ecx
   140003613:	48 83 c0 18          	add    $0x18,%rax
   140003617:	66 0f 1f 84 00 00 00 	nopw   0x0(%rax,%rax,1)
   14000361e:	00 00 
   140003620:	48 8b 10             	mov    (%rax),%rdx
   140003623:	4c 39 e2             	cmp    %r12,%rdx
   140003626:	77 14                	ja     14000363c <mark_section_writable+0x4c>
   140003628:	4c 8b 40 08          	mov    0x8(%rax),%r8
   14000362c:	45 8b 40 08          	mov    0x8(%r8),%r8d
   140003630:	4c 01 c2             	add    %r8,%rdx
   140003633:	49 39 d4             	cmp    %rdx,%r12
   140003636:	0f 82 87 00 00 00    	jb     1400036c3 <mark_section_writable+0xd3>
   14000363c:	83 c1 01             	add    $0x1,%ecx
   14000363f:	48 83 c0 28          	add    $0x28,%rax
   140003643:	39 d9                	cmp    %ebx,%ecx
   140003645:	75 d9                	jne    140003620 <mark_section_writable+0x30>
   140003647:	4c 89 e1             	mov    %r12,%rcx
   14000364a:	e8 41 09 00 00       	call   140003f90 <__mingw_GetSectionForAddress>
   14000364f:	48 89 c6             	mov    %rax,%rsi
   140003652:	48 85 c0             	test   %rax,%rax
   140003655:	0f 84 e7 00 00 00    	je     140003742 <mark_section_writable+0x152>
   14000365b:	48 8b 05 56 5a 01 00 	mov    0x15a56(%rip),%rax        # 1400190b8 <the_secs>
   140003662:	48 8d 1c 9b          	lea    (%rbx,%rbx,4),%rbx
   140003666:	48 c1 e3 03          	shl    $0x3,%rbx
   14000366a:	48 01 d8             	add    %rbx,%rax
   14000366d:	48 89 70 20          	mov    %rsi,0x20(%rax)
   140003671:	c7 00 00 00 00 00    	movl   $0x0,(%rax)
   140003677:	e8 44 0a 00 00       	call   1400040c0 <_GetPEImageBase>
   14000367c:	8b 4e 0c             	mov    0xc(%rsi),%ecx
   14000367f:	48 8d 54 24 20       	lea    0x20(%rsp),%rdx
   140003684:	41 b8 30 00 00 00    	mov    $0x30,%r8d
   14000368a:	48 01 c1             	add    %rax,%rcx
   14000368d:	48 8b 05 24 5a 01 00 	mov    0x15a24(%rip),%rax        # 1400190b8 <the_secs>
   140003694:	48 89 4c 18 18       	mov    %rcx,0x18(%rax,%rbx,1)
   140003699:	ff 15 fd 6e 01 00    	call   *0x16efd(%rip)        # 14001a59c <__imp_VirtualQuery>
   14000369f:	48 85 c0             	test   %rax,%rax
   1400036a2:	0f 84 7f 00 00 00    	je     140003727 <mark_section_writable+0x137>
   1400036a8:	8b 44 24 44          	mov    0x44(%rsp),%eax
   1400036ac:	8d 50 c0             	lea    -0x40(%rax),%edx
   1400036af:	83 e2 bf             	and    $0xffffffbf,%edx
   1400036b2:	74 08                	je     1400036bc <mark_section_writable+0xcc>
   1400036b4:	8d 50 fc             	lea    -0x4(%rax),%edx
   1400036b7:	83 e2 fb             	and    $0xfffffffb,%edx
   1400036ba:	75 14                	jne    1400036d0 <mark_section_writable+0xe0>
   1400036bc:	83 05 f1 59 01 00 01 	addl   $0x1,0x159f1(%rip)        # 1400190b4 <maxSections>
   1400036c3:	48 83 c4 50          	add    $0x50,%rsp
   1400036c7:	5b                   	pop    %rbx
   1400036c8:	5e                   	pop    %rsi
   1400036c9:	41 5c                	pop    %r12
   1400036cb:	c3                   	ret    
   1400036cc:	0f 1f 40 00          	nopl   0x0(%rax)
   1400036d0:	83 f8 02             	cmp    $0x2,%eax
   1400036d3:	48 8b 4c 24 20       	mov    0x20(%rsp),%rcx
   1400036d8:	48 8b 54 24 38       	mov    0x38(%rsp),%rdx
   1400036dd:	41 b8 04 00 00 00    	mov    $0x4,%r8d
   1400036e3:	b8 40 00 00 00       	mov    $0x40,%eax
   1400036e8:	44 0f 45 c0          	cmovne %eax,%r8d
   1400036ec:	48 03 1d c5 59 01 00 	add    0x159c5(%rip),%rbx        # 1400190b8 <the_secs>
   1400036f3:	48 89 4b 08          	mov    %rcx,0x8(%rbx)
   1400036f7:	49 89 d9             	mov    %rbx,%r9
   1400036fa:	48 89 53 10          	mov    %rdx,0x10(%rbx)
   1400036fe:	ff 15 90 6e 01 00    	call   *0x16e90(%rip)        # 14001a594 <__imp_VirtualProtect>
   140003704:	85 c0                	test   %eax,%eax
   140003706:	75 b4                	jne    1400036bc <mark_section_writable+0xcc>
   140003708:	ff 15 5e 6d 01 00    	call   *0x16d5e(%rip)        # 14001a46c <__imp_GetLastError>
   14000370e:	48 8d 0d 43 1e 01 00 	lea    0x11e43(%rip),%rcx        # 140015558 <.rdata+0x78>
   140003715:	89 c2                	mov    %eax,%edx
   140003717:	e8 64 fe ff ff       	call   140003580 <__report_error>
   14000371c:	0f 1f 40 00          	nopl   0x0(%rax)
   140003720:	31 db                	xor    %ebx,%ebx
   140003722:	e9 20 ff ff ff       	jmp    140003647 <mark_section_writable+0x57>
   140003727:	48 8b 05 8a 59 01 00 	mov    0x1598a(%rip),%rax        # 1400190b8 <the_secs>
   14000372e:	8b 56 08             	mov    0x8(%rsi),%edx
   140003731:	48 8d 0d e8 1d 01 00 	lea    0x11de8(%rip),%rcx        # 140015520 <.rdata+0x40>
   140003738:	4c 8b 44 18 18       	mov    0x18(%rax,%rbx,1),%r8
   14000373d:	e8 3e fe ff ff       	call   140003580 <__report_error>
   140003742:	4c 89 e2             	mov    %r12,%rdx
   140003745:	48 8d 0d b4 1d 01 00 	lea    0x11db4(%rip),%rcx        # 140015500 <.rdata+0x20>
   14000374c:	e8 2f fe ff ff       	call   140003580 <__report_error>
   140003751:	90                   	nop
   140003752:	66 66 2e 0f 1f 84 00 	data16 cs nopw 0x0(%rax,%rax,1)
   140003759:	00 00 00 00 
   14000375d:	0f 1f 00             	nopl   (%rax)

0000000140003760 <_pei386_runtime_relocator>:
   140003760:	55                   	push   %rbp
   140003761:	41 57                	push   %r15
   140003763:	41 56                	push   %r14
   140003765:	41 55                	push   %r13
   140003767:	41 54                	push   %r12
   140003769:	57                   	push   %rdi
   14000376a:	56                   	push   %rsi
   14000376b:	53                   	push   %rbx
   14000376c:	48 83 ec 38          	sub    $0x38,%rsp
   140003770:	48 8d 6c 24 30       	lea    0x30(%rsp),%rbp
   140003775:	8b 3d 35 59 01 00    	mov    0x15935(%rip),%edi        # 1400190b0 <was_init.0>
   14000377b:	85 ff                	test   %edi,%edi
   14000377d:	74 11                	je     140003790 <_pei386_runtime_relocator+0x30>
   14000377f:	48 8d 65 08          	lea    0x8(%rbp),%rsp
   140003783:	5b                   	pop    %rbx
   140003784:	5e                   	pop    %rsi
   140003785:	5f                   	pop    %rdi
   140003786:	41 5c                	pop    %r12
   140003788:	41 5d                	pop    %r13
   14000378a:	41 5e                	pop    %r14
   14000378c:	41 5f                	pop    %r15
   14000378e:	5d                   	pop    %rbp
   14000378f:	c3                   	ret    
   140003790:	c7 05 16 59 01 00 01 	movl   $0x1,0x15916(%rip)        # 1400190b0 <was_init.0>
   140003797:	00 00 00 
   14000379a:	e8 71 08 00 00       	call   140004010 <__mingw_GetSectionCount>
   14000379f:	48 98                	cltq   
   1400037a1:	48 8d 04 80          	lea    (%rax,%rax,4),%rax
   1400037a5:	48 8d 04 c5 0f 00 00 	lea    0xf(,%rax,8),%rax
   1400037ac:	00 
   1400037ad:	48 83 e0 f0          	and    $0xfffffffffffffff0,%rax
   1400037b1:	e8 9a 0a 00 00       	call   140004250 <___chkstk_ms>
   1400037b6:	4c 8b 25 53 24 01 00 	mov    0x12453(%rip),%r12        # 140015c10 <.refptr.__RUNTIME_PSEUDO_RELOC_LIST_END__>
   1400037bd:	48 8b 1d 5c 24 01 00 	mov    0x1245c(%rip),%rbx        # 140015c20 <.refptr.__RUNTIME_PSEUDO_RELOC_LIST__>
   1400037c4:	c7 05 e6 58 01 00 00 	movl   $0x0,0x158e6(%rip)        # 1400190b4 <maxSections>
   1400037cb:	00 00 00 
   1400037ce:	48 29 c4             	sub    %rax,%rsp
   1400037d1:	48 8d 44 24 20       	lea    0x20(%rsp),%rax
   1400037d6:	48 89 05 db 58 01 00 	mov    %rax,0x158db(%rip)        # 1400190b8 <the_secs>
   1400037dd:	4c 89 e0             	mov    %r12,%rax
   1400037e0:	48 29 d8             	sub    %rbx,%rax
   1400037e3:	48 83 f8 07          	cmp    $0x7,%rax
   1400037e7:	7e 96                	jle    14000377f <_pei386_runtime_relocator+0x1f>
   1400037e9:	48 83 f8 0b          	cmp    $0xb,%rax
   1400037ed:	0f 8f 2d 01 00 00    	jg     140003920 <_pei386_runtime_relocator+0x1c0>
   1400037f3:	8b 03                	mov    (%rbx),%eax
   1400037f5:	85 c0                	test   %eax,%eax
   1400037f7:	0f 85 93 01 00 00    	jne    140003990 <_pei386_runtime_relocator+0x230>
   1400037fd:	8b 43 04             	mov    0x4(%rbx),%eax
   140003800:	85 c0                	test   %eax,%eax
   140003802:	0f 85 88 01 00 00    	jne    140003990 <_pei386_runtime_relocator+0x230>
   140003808:	8b 53 08             	mov    0x8(%rbx),%edx
   14000380b:	83 fa 01             	cmp    $0x1,%edx
   14000380e:	0f 85 bd 01 00 00    	jne    1400039d1 <_pei386_runtime_relocator+0x271>
   140003814:	48 83 c3 0c          	add    $0xc,%rbx
   140003818:	4c 39 e3             	cmp    %r12,%rbx
   14000381b:	0f 83 5e ff ff ff    	jae    14000377f <_pei386_runtime_relocator+0x1f>
   140003821:	4c 8b 2d 18 24 01 00 	mov    0x12418(%rip),%r13        # 140015c40 <.refptr.__image_base__>
   140003828:	49 be 00 00 00 00 ff 	movabs $0xffffffff00000000,%r14
   14000382f:	ff ff ff 
   140003832:	eb 31                	jmp    140003865 <_pei386_runtime_relocator+0x105>
   140003834:	0f 1f 40 00          	nopl   0x0(%rax)
   140003838:	0f b6 16             	movzbl (%rsi),%edx
   14000383b:	48 89 f1             	mov    %rsi,%rcx
   14000383e:	49 89 d0             	mov    %rdx,%r8
   140003841:	49 81 c8 00 ff ff ff 	or     $0xffffffffffffff00,%r8
   140003848:	84 d2                	test   %dl,%dl
   14000384a:	49 0f 48 d0          	cmovs  %r8,%rdx
   14000384e:	48 29 c2             	sub    %rax,%rdx
   140003851:	49 01 d7             	add    %rdx,%r15
   140003854:	e8 97 fd ff ff       	call   1400035f0 <mark_section_writable>
   140003859:	44 88 3e             	mov    %r15b,(%rsi)
   14000385c:	48 83 c3 0c          	add    $0xc,%rbx
   140003860:	4c 39 e3             	cmp    %r12,%rbx
   140003863:	73 63                	jae    1400038c8 <_pei386_runtime_relocator+0x168>
   140003865:	8b 03                	mov    (%rbx),%eax
   140003867:	8b 73 04             	mov    0x4(%rbx),%esi
   14000386a:	0f b6 53 08          	movzbl 0x8(%rbx),%edx
   14000386e:	4c 01 e8             	add    %r13,%rax
   140003871:	4c 01 ee             	add    %r13,%rsi
   140003874:	4c 8b 38             	mov    (%rax),%r15
   140003877:	83 fa 20             	cmp    $0x20,%edx
   14000387a:	0f 84 e8 00 00 00    	je     140003968 <_pei386_runtime_relocator+0x208>
   140003880:	0f 87 ba 00 00 00    	ja     140003940 <_pei386_runtime_relocator+0x1e0>
   140003886:	83 fa 08             	cmp    $0x8,%edx
   140003889:	74 ad                	je     140003838 <_pei386_runtime_relocator+0xd8>
   14000388b:	83 fa 10             	cmp    $0x10,%edx
   14000388e:	0f 85 31 01 00 00    	jne    1400039c5 <_pei386_runtime_relocator+0x265>
   140003894:	0f b7 16             	movzwl (%rsi),%edx
   140003897:	48 89 f1             	mov    %rsi,%rcx
   14000389a:	49 89 d0             	mov    %rdx,%r8
   14000389d:	49 81 c8 00 00 ff ff 	or     $0xffffffffffff0000,%r8
   1400038a4:	66 85 d2             	test   %dx,%dx
   1400038a7:	49 0f 48 d0          	cmovs  %r8,%rdx
   1400038ab:	48 83 c3 0c          	add    $0xc,%rbx
   1400038af:	48 29 c2             	sub    %rax,%rdx
   1400038b2:	49 01 d7             	add    %rdx,%r15
   1400038b5:	e8 36 fd ff ff       	call   1400035f0 <mark_section_writable>
   1400038ba:	66 44 89 3e          	mov    %r15w,(%rsi)
   1400038be:	4c 39 e3             	cmp    %r12,%rbx
   1400038c1:	72 a2                	jb     140003865 <_pei386_runtime_relocator+0x105>
   1400038c3:	0f 1f 44 00 00       	nopl   0x0(%rax,%rax,1)
   1400038c8:	8b 0d e6 57 01 00    	mov    0x157e6(%rip),%ecx        # 1400190b4 <maxSections>
   1400038ce:	85 c9                	test   %ecx,%ecx
   1400038d0:	0f 8e a9 fe ff ff    	jle    14000377f <_pei386_runtime_relocator+0x1f>
   1400038d6:	48 8b 35 b7 6c 01 00 	mov    0x16cb7(%rip),%rsi        # 14001a594 <__imp_VirtualProtect>
   1400038dd:	31 db                	xor    %ebx,%ebx
   1400038df:	4c 8d 65 fc          	lea    -0x4(%rbp),%r12
   1400038e3:	0f 1f 44 00 00       	nopl   0x0(%rax,%rax,1)
   1400038e8:	48 8b 05 c9 57 01 00 	mov    0x157c9(%rip),%rax        # 1400190b8 <the_secs>
   1400038ef:	48 01 d8             	add    %rbx,%rax
   1400038f2:	44 8b 00             	mov    (%rax),%r8d
   1400038f5:	45 85 c0             	test   %r8d,%r8d
   1400038f8:	74 0d                	je     140003907 <_pei386_runtime_relocator+0x1a7>
   1400038fa:	48 8b 50 10          	mov    0x10(%rax),%rdx
   1400038fe:	48 8b 48 08          	mov    0x8(%rax),%rcx
   140003902:	4d 89 e1             	mov    %r12,%r9
   140003905:	ff d6                	call   *%rsi
   140003907:	83 c7 01             	add    $0x1,%edi
   14000390a:	48 83 c3 28          	add    $0x28,%rbx
   14000390e:	3b 3d a0 57 01 00    	cmp    0x157a0(%rip),%edi        # 1400190b4 <maxSections>
   140003914:	7c d2                	jl     1400038e8 <_pei386_runtime_relocator+0x188>
   140003916:	e9 64 fe ff ff       	jmp    14000377f <_pei386_runtime_relocator+0x1f>
   14000391b:	0f 1f 44 00 00       	nopl   0x0(%rax,%rax,1)
   140003920:	8b 13                	mov    (%rbx),%edx
   140003922:	85 d2                	test   %edx,%edx
   140003924:	75 6a                	jne    140003990 <_pei386_runtime_relocator+0x230>
   140003926:	8b 43 04             	mov    0x4(%rbx),%eax
   140003929:	89 c1                	mov    %eax,%ecx
   14000392b:	0b 4b 08             	or     0x8(%rbx),%ecx
   14000392e:	0f 85 cc fe ff ff    	jne    140003800 <_pei386_runtime_relocator+0xa0>
   140003934:	48 83 c3 0c          	add    $0xc,%rbx
   140003938:	e9 b6 fe ff ff       	jmp    1400037f3 <_pei386_runtime_relocator+0x93>
   14000393d:	0f 1f 00             	nopl   (%rax)
   140003940:	83 fa 40             	cmp    $0x40,%edx
   140003943:	0f 85 7c 00 00 00    	jne    1400039c5 <_pei386_runtime_relocator+0x265>
   140003949:	48 8b 16             	mov    (%rsi),%rdx
   14000394c:	48 89 f1             	mov    %rsi,%rcx
   14000394f:	48 29 c2             	sub    %rax,%rdx
   140003952:	49 01 d7             	add    %rdx,%r15
   140003955:	e8 96 fc ff ff       	call   1400035f0 <mark_section_writable>
   14000395a:	4c 89 3e             	mov    %r15,(%rsi)
   14000395d:	e9 fa fe ff ff       	jmp    14000385c <_pei386_runtime_relocator+0xfc>
   140003962:	66 0f 1f 44 00 00    	nopw   0x0(%rax,%rax,1)
   140003968:	8b 16                	mov    (%rsi),%edx
   14000396a:	48 89 d1             	mov    %rdx,%rcx
   14000396d:	4c 09 f2             	or     %r14,%rdx
   140003970:	85 c9                	test   %ecx,%ecx
   140003972:	48 0f 49 d1          	cmovns %rcx,%rdx
   140003976:	48 89 f1             	mov    %rsi,%rcx
   140003979:	48 29 c2             	sub    %rax,%rdx
   14000397c:	49 01 d7             	add    %rdx,%r15
   14000397f:	e8 6c fc ff ff       	call   1400035f0 <mark_section_writable>
   140003984:	44 89 3e             	mov    %r15d,(%rsi)
   140003987:	e9 d0 fe ff ff       	jmp    14000385c <_pei386_runtime_relocator+0xfc>
   14000398c:	0f 1f 40 00          	nopl   0x0(%rax)
   140003990:	4c 39 e3             	cmp    %r12,%rbx
   140003993:	0f 83 e6 fd ff ff    	jae    14000377f <_pei386_runtime_relocator+0x1f>
   140003999:	4c 8b 35 a0 22 01 00 	mov    0x122a0(%rip),%r14        # 140015c40 <.refptr.__image_base__>
   1400039a0:	8b 73 04             	mov    0x4(%rbx),%esi
   1400039a3:	44 8b 2b             	mov    (%rbx),%r13d
   1400039a6:	48 83 c3 08          	add    $0x8,%rbx
   1400039aa:	4c 01 f6             	add    %r14,%rsi
   1400039ad:	44 03 2e             	add    (%rsi),%r13d
   1400039b0:	48 89 f1             	mov    %rsi,%rcx
   1400039b3:	e8 38 fc ff ff       	call   1400035f0 <mark_section_writable>
   1400039b8:	44 89 2e             	mov    %r13d,(%rsi)
   1400039bb:	4c 39 e3             	cmp    %r12,%rbx
   1400039be:	72 e0                	jb     1400039a0 <_pei386_runtime_relocator+0x240>
   1400039c0:	e9 03 ff ff ff       	jmp    1400038c8 <_pei386_runtime_relocator+0x168>
   1400039c5:	48 8d 0d ec 1b 01 00 	lea    0x11bec(%rip),%rcx        # 1400155b8 <.rdata+0xd8>
   1400039cc:	e8 af fb ff ff       	call   140003580 <__report_error>
   1400039d1:	48 8d 0d a8 1b 01 00 	lea    0x11ba8(%rip),%rcx        # 140015580 <.rdata+0xa0>
   1400039d8:	e8 a3 fb ff ff       	call   140003580 <__report_error>
   1400039dd:	90                   	nop
   1400039de:	90                   	nop
   1400039df:	90                   	nop

00000001400039e0 <__mingw_raise_matherr>:
   1400039e0:	48 83 ec 58          	sub    $0x58,%rsp
   1400039e4:	48 8b 05 d5 56 01 00 	mov    0x156d5(%rip),%rax        # 1400190c0 <stUserMathErr>
   1400039eb:	48 85 c0             	test   %rax,%rax
   1400039ee:	74 2c                	je     140003a1c <__mingw_raise_matherr+0x3c>
   1400039f0:	f2 0f 10 84 24 80 00 	movsd  0x80(%rsp),%xmm0
   1400039f7:	00 00 
   1400039f9:	89 4c 24 20          	mov    %ecx,0x20(%rsp)
   1400039fd:	48 8d 4c 24 20       	lea    0x20(%rsp),%rcx
   140003a02:	48 89 54 24 28       	mov    %rdx,0x28(%rsp)
   140003a07:	f2 0f 11 54 24 30    	movsd  %xmm2,0x30(%rsp)
   140003a0d:	f2 0f 11 5c 24 38    	movsd  %xmm3,0x38(%rsp)
   140003a13:	f2 0f 11 44 24 40    	movsd  %xmm0,0x40(%rsp)
   140003a19:	ff d0                	call   *%rax
   140003a1b:	90                   	nop
   140003a1c:	48 83 c4 58          	add    $0x58,%rsp
   140003a20:	c3                   	ret    
   140003a21:	66 66 2e 0f 1f 84 00 	data16 cs nopw 0x0(%rax,%rax,1)
   140003a28:	00 00 00 00 
   140003a2c:	0f 1f 40 00          	nopl   0x0(%rax)

0000000140003a30 <__mingw_setusermatherr>:
   140003a30:	48 89 0d 89 56 01 00 	mov    %rcx,0x15689(%rip)        # 1400190c0 <stUserMathErr>
   140003a37:	e9 74 f5 00 00       	jmp    140012fb0 <__setusermatherr>
   140003a3c:	90                   	nop
   140003a3d:	90                   	nop
   140003a3e:	90                   	nop
   140003a3f:	90                   	nop

0000000140003a40 <_gnu_exception_handler>:
   140003a40:	41 54                	push   %r12
   140003a42:	48 83 ec 20          	sub    $0x20,%rsp
   140003a46:	48 8b 11             	mov    (%rcx),%rdx
   140003a49:	8b 02                	mov    (%rdx),%eax
   140003a4b:	49 89 cc             	mov    %rcx,%r12
   140003a4e:	89 c1                	mov    %eax,%ecx
   140003a50:	81 e1 ff ff ff 20    	and    $0x20ffffff,%ecx
   140003a56:	81 f9 43 43 47 20    	cmp    $0x20474343,%ecx
   140003a5c:	0f 84 be 00 00 00    	je     140003b20 <_gnu_exception_handler+0xe0>
   140003a62:	3d 96 00 00 c0       	cmp    $0xc0000096,%eax
   140003a67:	0f 87 9a 00 00 00    	ja     140003b07 <_gnu_exception_handler+0xc7>
   140003a6d:	3d 8b 00 00 c0       	cmp    $0xc000008b,%eax
   140003a72:	76 44                	jbe    140003ab8 <_gnu_exception_handler+0x78>
   140003a74:	05 73 ff ff 3f       	add    $0x3fffff73,%eax
   140003a79:	83 f8 09             	cmp    $0x9,%eax
   140003a7c:	77 2a                	ja     140003aa8 <_gnu_exception_handler+0x68>
   140003a7e:	48 8d 15 6b 1b 01 00 	lea    0x11b6b(%rip),%rdx        # 1400155f0 <.rdata>
   140003a85:	48 63 04 82          	movslq (%rdx,%rax,4),%rax
   140003a89:	48 01 d0             	add    %rdx,%rax
   140003a8c:	ff e0                	jmp    *%rax
   140003a8e:	66 90                	xchg   %ax,%ax
   140003a90:	ba 01 00 00 00       	mov    $0x1,%edx
   140003a95:	b9 08 00 00 00       	mov    $0x8,%ecx
   140003a9a:	e8 09 f4 00 00       	call   140012ea8 <signal>
   140003a9f:	e8 cc fa ff ff       	call   140003570 <_fpreset>
   140003aa4:	0f 1f 40 00          	nopl   0x0(%rax)
   140003aa8:	b8 ff ff ff ff       	mov    $0xffffffff,%eax
   140003aad:	48 83 c4 20          	add    $0x20,%rsp
   140003ab1:	41 5c                	pop    %r12
   140003ab3:	c3                   	ret    
   140003ab4:	0f 1f 40 00          	nopl   0x0(%rax)
   140003ab8:	3d 05 00 00 c0       	cmp    $0xc0000005,%eax
   140003abd:	0f 84 dd 00 00 00    	je     140003ba0 <_gnu_exception_handler+0x160>
   140003ac3:	76 3b                	jbe    140003b00 <_gnu_exception_handler+0xc0>
   140003ac5:	3d 08 00 00 c0       	cmp    $0xc0000008,%eax
   140003aca:	74 dc                	je     140003aa8 <_gnu_exception_handler+0x68>
   140003acc:	3d 1d 00 00 c0       	cmp    $0xc000001d,%eax
   140003ad1:	75 34                	jne    140003b07 <_gnu_exception_handler+0xc7>
   140003ad3:	31 d2                	xor    %edx,%edx
   140003ad5:	b9 04 00 00 00       	mov    $0x4,%ecx
   140003ada:	e8 c9 f3 00 00       	call   140012ea8 <signal>
   140003adf:	48 83 f8 01          	cmp    $0x1,%rax
   140003ae3:	0f 84 e3 00 00 00    	je     140003bcc <_gnu_exception_handler+0x18c>
   140003ae9:	48 85 c0             	test   %rax,%rax
   140003aec:	74 19                	je     140003b07 <_gnu_exception_handler+0xc7>
   140003aee:	b9 04 00 00 00       	mov    $0x4,%ecx
   140003af3:	ff d0                	call   *%rax
   140003af5:	b8 ff ff ff ff       	mov    $0xffffffff,%eax
   140003afa:	eb b1                	jmp    140003aad <_gnu_exception_handler+0x6d>
   140003afc:	0f 1f 40 00          	nopl   0x0(%rax)
   140003b00:	3d 02 00 00 80       	cmp    $0x80000002,%eax
   140003b05:	74 a1                	je     140003aa8 <_gnu_exception_handler+0x68>
   140003b07:	48 8b 05 d2 55 01 00 	mov    0x155d2(%rip),%rax        # 1400190e0 <__mingw_oldexcpt_handler>
   140003b0e:	48 85 c0             	test   %rax,%rax
   140003b11:	74 1d                	je     140003b30 <_gnu_exception_handler+0xf0>
   140003b13:	4c 89 e1             	mov    %r12,%rcx
   140003b16:	48 83 c4 20          	add    $0x20,%rsp
   140003b1a:	41 5c                	pop    %r12
   140003b1c:	48 ff e0             	rex.W jmp *%rax
   140003b1f:	90                   	nop
   140003b20:	f6 42 04 01          	testb  $0x1,0x4(%rdx)
   140003b24:	0f 85 38 ff ff ff    	jne    140003a62 <_gnu_exception_handler+0x22>
   140003b2a:	e9 79 ff ff ff       	jmp    140003aa8 <_gnu_exception_handler+0x68>
   140003b2f:	90                   	nop
   140003b30:	31 c0                	xor    %eax,%eax
   140003b32:	48 83 c4 20          	add    $0x20,%rsp
   140003b36:	41 5c                	pop    %r12
   140003b38:	c3                   	ret    
   140003b39:	0f 1f 80 00 00 00 00 	nopl   0x0(%rax)
   140003b40:	31 d2                	xor    %edx,%edx
   140003b42:	b9 08 00 00 00       	mov    $0x8,%ecx
   140003b47:	e8 5c f3 00 00       	call   140012ea8 <signal>
   140003b4c:	48 83 f8 01          	cmp    $0x1,%rax
   140003b50:	0f 84 3a ff ff ff    	je     140003a90 <_gnu_exception_handler+0x50>
   140003b56:	48 85 c0             	test   %rax,%rax
   140003b59:	74 ac                	je     140003b07 <_gnu_exception_handler+0xc7>
   140003b5b:	b9 08 00 00 00       	mov    $0x8,%ecx
   140003b60:	ff d0                	call   *%rax
   140003b62:	b8 ff ff ff ff       	mov    $0xffffffff,%eax
   140003b67:	e9 41 ff ff ff       	jmp    140003aad <_gnu_exception_handler+0x6d>
   140003b6c:	0f 1f 40 00          	nopl   0x0(%rax)
   140003b70:	31 d2                	xor    %edx,%edx
   140003b72:	b9 08 00 00 00       	mov    $0x8,%ecx
   140003b77:	e8 2c f3 00 00       	call   140012ea8 <signal>
   140003b7c:	48 83 f8 01          	cmp    $0x1,%rax
   140003b80:	75 d4                	jne    140003b56 <_gnu_exception_handler+0x116>
   140003b82:	ba 01 00 00 00       	mov    $0x1,%edx
   140003b87:	b9 08 00 00 00       	mov    $0x8,%ecx
   140003b8c:	e8 17 f3 00 00       	call   140012ea8 <signal>
   140003b91:	b8 ff ff ff ff       	mov    $0xffffffff,%eax
   140003b96:	e9 12 ff ff ff       	jmp    140003aad <_gnu_exception_handler+0x6d>
   140003b9b:	0f 1f 44 00 00       	nopl   0x0(%rax,%rax,1)
   140003ba0:	31 d2                	xor    %edx,%edx
   140003ba2:	b9 0b 00 00 00       	mov    $0xb,%ecx
   140003ba7:	e8 fc f2 00 00       	call   140012ea8 <signal>
   140003bac:	48 83 f8 01          	cmp    $0x1,%rax
   140003bb0:	74 31                	je     140003be3 <_gnu_exception_handler+0x1a3>
   140003bb2:	48 85 c0             	test   %rax,%rax
   140003bb5:	0f 84 4c ff ff ff    	je     140003b07 <_gnu_exception_handler+0xc7>
   140003bbb:	b9 0b 00 00 00       	mov    $0xb,%ecx
   140003bc0:	ff d0                	call   *%rax
   140003bc2:	b8 ff ff ff ff       	mov    $0xffffffff,%eax
   140003bc7:	e9 e1 fe ff ff       	jmp    140003aad <_gnu_exception_handler+0x6d>
   140003bcc:	ba 01 00 00 00       	mov    $0x1,%edx
   140003bd1:	b9 04 00 00 00       	mov    $0x4,%ecx
   140003bd6:	e8 cd f2 00 00       	call   140012ea8 <signal>
   140003bdb:	83 c8 ff             	or     $0xffffffff,%eax
   140003bde:	e9 ca fe ff ff       	jmp    140003aad <_gnu_exception_handler+0x6d>
   140003be3:	ba 01 00 00 00       	mov    $0x1,%edx
   140003be8:	b9 0b 00 00 00       	mov    $0xb,%ecx
   140003bed:	e8 b6 f2 00 00       	call   140012ea8 <signal>
   140003bf2:	83 c8 ff             	or     $0xffffffff,%eax
   140003bf5:	e9 b3 fe ff ff       	jmp    140003aad <_gnu_exception_handler+0x6d>
   140003bfa:	90                   	nop
   140003bfb:	90                   	nop
   140003bfc:	90                   	nop
   140003bfd:	90                   	nop
   140003bfe:	90                   	nop
   140003bff:	90                   	nop

0000000140003c00 <__mingwthr_run_key_dtors.part.0>:
   140003c00:	41 54                	push   %r12
   140003c02:	57                   	push   %rdi
   140003c03:	56                   	push   %rsi
   140003c04:	53                   	push   %rbx
   140003c05:	48 83 ec 28          	sub    $0x28,%rsp
   140003c09:	48 8d 0d 10 55 01 00 	lea    0x15510(%rip),%rcx        # 140019120 <__mingwthr_cs>
   140003c10:	ff 15 0e 68 01 00    	call   *0x1680e(%rip)        # 14001a424 <__imp_EnterCriticalSection>
   140003c16:	48 8b 1d e3 54 01 00 	mov    0x154e3(%rip),%rbx        # 140019100 <key_dtor_list>
   140003c1d:	48 85 db             	test   %rbx,%rbx
   140003c20:	74 32                	je     140003c54 <__mingwthr_run_key_dtors.part.0+0x54>
   140003c22:	48 8b 3d 53 69 01 00 	mov    0x16953(%rip),%rdi        # 14001a57c <__imp_TlsGetValue>
   140003c29:	48 8b 35 3c 68 01 00 	mov    0x1683c(%rip),%rsi        # 14001a46c <__imp_GetLastError>
   140003c30:	8b 0b                	mov    (%rbx),%ecx
   140003c32:	ff d7                	call   *%rdi
   140003c34:	49 89 c4             	mov    %rax,%r12
   140003c37:	ff d6                	call   *%rsi
   140003c39:	85 c0                	test   %eax,%eax
   140003c3b:	75 0e                	jne    140003c4b <__mingwthr_run_key_dtors.part.0+0x4b>
   140003c3d:	4d 85 e4             	test   %r12,%r12
   140003c40:	74 09                	je     140003c4b <__mingwthr_run_key_dtors.part.0+0x4b>
   140003c42:	48 8b 43 08          	mov    0x8(%rbx),%rax
   140003c46:	4c 89 e1             	mov    %r12,%rcx
   140003c49:	ff d0                	call   *%rax
   140003c4b:	48 8b 5b 10          	mov    0x10(%rbx),%rbx
   140003c4f:	48 85 db             	test   %rbx,%rbx
   140003c52:	75 dc                	jne    140003c30 <__mingwthr_run_key_dtors.part.0+0x30>
   140003c54:	48 8d 0d c5 54 01 00 	lea    0x154c5(%rip),%rcx        # 140019120 <__mingwthr_cs>
   140003c5b:	48 83 c4 28          	add    $0x28,%rsp
   140003c5f:	5b                   	pop    %rbx
   140003c60:	5e                   	pop    %rsi
   140003c61:	5f                   	pop    %rdi
   140003c62:	41 5c                	pop    %r12
   140003c64:	48 ff 25 59 68 01 00 	rex.W jmp *0x16859(%rip)        # 14001a4c4 <__imp_LeaveCriticalSection>
   140003c6b:	0f 1f 44 00 00       	nopl   0x0(%rax,%rax,1)

0000000140003c70 <___w64_mingwthr_add_key_dtor>:
   140003c70:	57                   	push   %rdi
   140003c71:	56                   	push   %rsi
   140003c72:	53                   	push   %rbx
   140003c73:	48 83 ec 20          	sub    $0x20,%rsp
   140003c77:	8b 05 8b 54 01 00    	mov    0x1548b(%rip),%eax        # 140019108 <__mingwthr_cs_init>
   140003c7d:	89 cf                	mov    %ecx,%edi
   140003c7f:	48 89 d6             	mov    %rdx,%rsi
   140003c82:	85 c0                	test   %eax,%eax
   140003c84:	75 0a                	jne    140003c90 <___w64_mingwthr_add_key_dtor+0x20>
   140003c86:	48 83 c4 20          	add    $0x20,%rsp
   140003c8a:	5b                   	pop    %rbx
   140003c8b:	5e                   	pop    %rsi
   140003c8c:	5f                   	pop    %rdi
   140003c8d:	c3                   	ret    
   140003c8e:	66 90                	xchg   %ax,%ax
   140003c90:	ba 18 00 00 00       	mov    $0x18,%edx
   140003c95:	b9 01 00 00 00       	mov    $0x1,%ecx
   140003c9a:	e8 91 f2 00 00       	call   140012f30 <calloc>
   140003c9f:	48 89 c3             	mov    %rax,%rbx
   140003ca2:	48 85 c0             	test   %rax,%rax
   140003ca5:	74 3c                	je     140003ce3 <___w64_mingwthr_add_key_dtor+0x73>
   140003ca7:	89 38                	mov    %edi,(%rax)
   140003ca9:	48 8d 0d 70 54 01 00 	lea    0x15470(%rip),%rcx        # 140019120 <__mingwthr_cs>
   140003cb0:	48 89 70 08          	mov    %rsi,0x8(%rax)
   140003cb4:	ff 15 6a 67 01 00    	call   *0x1676a(%rip)        # 14001a424 <__imp_EnterCriticalSection>
   140003cba:	48 8b 05 3f 54 01 00 	mov    0x1543f(%rip),%rax        # 140019100 <key_dtor_list>
   140003cc1:	48 8d 0d 58 54 01 00 	lea    0x15458(%rip),%rcx        # 140019120 <__mingwthr_cs>
   140003cc8:	48 89 1d 31 54 01 00 	mov    %rbx,0x15431(%rip)        # 140019100 <key_dtor_list>
   140003ccf:	48 89 43 10          	mov    %rax,0x10(%rbx)
   140003cd3:	ff 15 eb 67 01 00    	call   *0x167eb(%rip)        # 14001a4c4 <__imp_LeaveCriticalSection>
   140003cd9:	31 c0                	xor    %eax,%eax
   140003cdb:	48 83 c4 20          	add    $0x20,%rsp
   140003cdf:	5b                   	pop    %rbx
   140003ce0:	5e                   	pop    %rsi
   140003ce1:	5f                   	pop    %rdi
   140003ce2:	c3                   	ret    
   140003ce3:	83 c8 ff             	or     $0xffffffff,%eax
   140003ce6:	eb 9e                	jmp    140003c86 <___w64_mingwthr_add_key_dtor+0x16>
   140003ce8:	0f 1f 84 00 00 00 00 	nopl   0x0(%rax,%rax,1)
   140003cef:	00 

0000000140003cf0 <___w64_mingwthr_remove_key_dtor>:
   140003cf0:	53                   	push   %rbx
   140003cf1:	48 83 ec 20          	sub    $0x20,%rsp
   140003cf5:	8b 05 0d 54 01 00    	mov    0x1540d(%rip),%eax        # 140019108 <__mingwthr_cs_init>
   140003cfb:	89 cb                	mov    %ecx,%ebx
   140003cfd:	85 c0                	test   %eax,%eax
   140003cff:	75 0f                	jne    140003d10 <___w64_mingwthr_remove_key_dtor+0x20>
   140003d01:	31 c0                	xor    %eax,%eax
   140003d03:	48 83 c4 20          	add    $0x20,%rsp
   140003d07:	5b                   	pop    %rbx
   140003d08:	c3                   	ret    
   140003d09:	0f 1f 80 00 00 00 00 	nopl   0x0(%rax)
   140003d10:	48 8d 0d 09 54 01 00 	lea    0x15409(%rip),%rcx        # 140019120 <__mingwthr_cs>
   140003d17:	ff 15 07 67 01 00    	call   *0x16707(%rip)        # 14001a424 <__imp_EnterCriticalSection>
   140003d1d:	48 8b 0d dc 53 01 00 	mov    0x153dc(%rip),%rcx        # 140019100 <key_dtor_list>
   140003d24:	48 85 c9             	test   %rcx,%rcx
   140003d27:	74 2a                	je     140003d53 <___w64_mingwthr_remove_key_dtor+0x63>
   140003d29:	31 d2                	xor    %edx,%edx
   140003d2b:	eb 0e                	jmp    140003d3b <___w64_mingwthr_remove_key_dtor+0x4b>
   140003d2d:	0f 1f 00             	nopl   (%rax)
   140003d30:	48 89 ca             	mov    %rcx,%rdx
   140003d33:	48 85 c0             	test   %rax,%rax
   140003d36:	74 1b                	je     140003d53 <___w64_mingwthr_remove_key_dtor+0x63>
   140003d38:	48 89 c1             	mov    %rax,%rcx
   140003d3b:	8b 01                	mov    (%rcx),%eax
   140003d3d:	39 d8                	cmp    %ebx,%eax
   140003d3f:	48 8b 41 10          	mov    0x10(%rcx),%rax
   140003d43:	75 eb                	jne    140003d30 <___w64_mingwthr_remove_key_dtor+0x40>
   140003d45:	48 85 d2             	test   %rdx,%rdx
   140003d48:	74 26                	je     140003d70 <___w64_mingwthr_remove_key_dtor+0x80>
   140003d4a:	48 89 42 10          	mov    %rax,0x10(%rdx)
   140003d4e:	e8 ad f1 00 00       	call   140012f00 <free>
   140003d53:	48 8d 0d c6 53 01 00 	lea    0x153c6(%rip),%rcx        # 140019120 <__mingwthr_cs>
   140003d5a:	ff 15 64 67 01 00    	call   *0x16764(%rip)        # 14001a4c4 <__imp_LeaveCriticalSection>
   140003d60:	31 c0                	xor    %eax,%eax
   140003d62:	48 83 c4 20          	add    $0x20,%rsp
   140003d66:	5b                   	pop    %rbx
   140003d67:	c3                   	ret    
   140003d68:	0f 1f 84 00 00 00 00 	nopl   0x0(%rax,%rax,1)
   140003d6f:	00 
   140003d70:	48 89 05 89 53 01 00 	mov    %rax,0x15389(%rip)        # 140019100 <key_dtor_list>
   140003d77:	eb d5                	jmp    140003d4e <___w64_mingwthr_remove_key_dtor+0x5e>
   140003d79:	0f 1f 80 00 00 00 00 	nopl   0x0(%rax)

0000000140003d80 <__mingw_TLScallback>:
   140003d80:	53                   	push   %rbx
   140003d81:	48 83 ec 20          	sub    $0x20,%rsp
   140003d85:	83 fa 02             	cmp    $0x2,%edx
   140003d88:	74 46                	je     140003dd0 <__mingw_TLScallback+0x50>
   140003d8a:	77 2c                	ja     140003db8 <__mingw_TLScallback+0x38>
   140003d8c:	85 d2                	test   %edx,%edx
   140003d8e:	74 50                	je     140003de0 <__mingw_TLScallback+0x60>
   140003d90:	8b 05 72 53 01 00    	mov    0x15372(%rip),%eax        # 140019108 <__mingwthr_cs_init>
   140003d96:	85 c0                	test   %eax,%eax
   140003d98:	0f 84 b2 00 00 00    	je     140003e50 <__mingw_TLScallback+0xd0>
   140003d9e:	c7 05 60 53 01 00 01 	movl   $0x1,0x15360(%rip)        # 140019108 <__mingwthr_cs_init>
   140003da5:	00 00 00 
   140003da8:	b8 01 00 00 00       	mov    $0x1,%eax
   140003dad:	48 83 c4 20          	add    $0x20,%rsp
   140003db1:	5b                   	pop    %rbx
   140003db2:	c3                   	ret    
   140003db3:	0f 1f 44 00 00       	nopl   0x0(%rax,%rax,1)
   140003db8:	83 fa 03             	cmp    $0x3,%edx
   140003dbb:	75 eb                	jne    140003da8 <__mingw_TLScallback+0x28>
   140003dbd:	8b 05 45 53 01 00    	mov    0x15345(%rip),%eax        # 140019108 <__mingwthr_cs_init>
   140003dc3:	85 c0                	test   %eax,%eax
   140003dc5:	74 e1                	je     140003da8 <__mingw_TLScallback+0x28>
   140003dc7:	e8 34 fe ff ff       	call   140003c00 <__mingwthr_run_key_dtors.part.0>
   140003dcc:	eb da                	jmp    140003da8 <__mingw_TLScallback+0x28>
   140003dce:	66 90                	xchg   %ax,%ax
   140003dd0:	e8 9b f7 ff ff       	call   140003570 <_fpreset>
   140003dd5:	b8 01 00 00 00       	mov    $0x1,%eax
   140003dda:	48 83 c4 20          	add    $0x20,%rsp
   140003dde:	5b                   	pop    %rbx
   140003ddf:	c3                   	ret    
   140003de0:	8b 05 22 53 01 00    	mov    0x15322(%rip),%eax        # 140019108 <__mingwthr_cs_init>
   140003de6:	85 c0                	test   %eax,%eax
   140003de8:	75 56                	jne    140003e40 <__mingw_TLScallback+0xc0>
   140003dea:	8b 05 18 53 01 00    	mov    0x15318(%rip),%eax        # 140019108 <__mingwthr_cs_init>
   140003df0:	83 f8 01             	cmp    $0x1,%eax
   140003df3:	75 b3                	jne    140003da8 <__mingw_TLScallback+0x28>
   140003df5:	48 8b 1d 04 53 01 00 	mov    0x15304(%rip),%rbx        # 140019100 <key_dtor_list>
   140003dfc:	48 85 db             	test   %rbx,%rbx
   140003dff:	74 18                	je     140003e19 <__mingw_TLScallback+0x99>
   140003e01:	0f 1f 80 00 00 00 00 	nopl   0x0(%rax)
   140003e08:	48 89 d9             	mov    %rbx,%rcx
   140003e0b:	48 8b 5b 10          	mov    0x10(%rbx),%rbx
   140003e0f:	e8 ec f0 00 00       	call   140012f00 <free>
   140003e14:	48 85 db             	test   %rbx,%rbx
   140003e17:	75 ef                	jne    140003e08 <__mingw_TLScallback+0x88>
   140003e19:	48 8d 0d 00 53 01 00 	lea    0x15300(%rip),%rcx        # 140019120 <__mingwthr_cs>
   140003e20:	48 c7 05 d5 52 01 00 	movq   $0x0,0x152d5(%rip)        # 140019100 <key_dtor_list>
   140003e27:	00 00 00 00 
   140003e2b:	c7 05 d3 52 01 00 00 	movl   $0x0,0x152d3(%rip)        # 140019108 <__mingwthr_cs_init>
   140003e32:	00 00 00 
   140003e35:	ff 15 d9 65 01 00    	call   *0x165d9(%rip)        # 14001a414 <__imp_DeleteCriticalSection>
   140003e3b:	e9 68 ff ff ff       	jmp    140003da8 <__mingw_TLScallback+0x28>
   140003e40:	e8 bb fd ff ff       	call   140003c00 <__mingwthr_run_key_dtors.part.0>
   140003e45:	eb a3                	jmp    140003dea <__mingw_TLScallback+0x6a>
   140003e47:	66 0f 1f 84 00 00 00 	nopw   0x0(%rax,%rax,1)
   140003e4e:	00 00 
   140003e50:	48 8d 0d c9 52 01 00 	lea    0x152c9(%rip),%rcx        # 140019120 <__mingwthr_cs>
   140003e57:	ff 15 4f 66 01 00    	call   *0x1664f(%rip)        # 14001a4ac <__imp_InitializeCriticalSection>
   140003e5d:	e9 3c ff ff ff       	jmp    140003d9e <__mingw_TLScallback+0x1e>
   140003e62:	90                   	nop
   140003e63:	90                   	nop
   140003e64:	90                   	nop
   140003e65:	90                   	nop
   140003e66:	90                   	nop
   140003e67:	90                   	nop
   140003e68:	90                   	nop
   140003e69:	90                   	nop
   140003e6a:	90                   	nop
   140003e6b:	90                   	nop
   140003e6c:	90                   	nop
   140003e6d:	90                   	nop
   140003e6e:	90                   	nop
   140003e6f:	90                   	nop

0000000140003e70 <_ValidateImageBase>:
   140003e70:	31 c0                	xor    %eax,%eax
   140003e72:	66 81 39 4d 5a       	cmpw   $0x5a4d,(%rcx)
   140003e77:	75 0f                	jne    140003e88 <_ValidateImageBase+0x18>
   140003e79:	48 63 51 3c          	movslq 0x3c(%rcx),%rdx
   140003e7d:	48 01 d1             	add    %rdx,%rcx
   140003e80:	81 39 50 45 00 00    	cmpl   $0x4550,(%rcx)
   140003e86:	74 08                	je     140003e90 <_ValidateImageBase+0x20>
   140003e88:	c3                   	ret    
   140003e89:	0f 1f 80 00 00 00 00 	nopl   0x0(%rax)
   140003e90:	31 c0                	xor    %eax,%eax
   140003e92:	66 81 79 18 0b 02    	cmpw   $0x20b,0x18(%rcx)
   140003e98:	0f 94 c0             	sete   %al
   140003e9b:	c3                   	ret    
   140003e9c:	0f 1f 40 00          	nopl   0x0(%rax)

0000000140003ea0 <_FindPESection>:
   140003ea0:	48 63 41 3c          	movslq 0x3c(%rcx),%rax
   140003ea4:	49 89 d0             	mov    %rdx,%r8
   140003ea7:	48 8d 14 08          	lea    (%rax,%rcx,1),%rdx
   140003eab:	0f b7 42 14          	movzwl 0x14(%rdx),%eax
   140003eaf:	48 8d 44 02 18       	lea    0x18(%rdx,%rax,1),%rax
   140003eb4:	0f b7 52 06          	movzwl 0x6(%rdx),%edx
   140003eb8:	85 d2                	test   %edx,%edx
   140003eba:	74 30                	je     140003eec <_FindPESection+0x4c>
   140003ebc:	83 ea 01             	sub    $0x1,%edx
   140003ebf:	48 8d 14 92          	lea    (%rdx,%rdx,4),%rdx
   140003ec3:	4c 8d 4c d0 28       	lea    0x28(%rax,%rdx,8),%r9
   140003ec8:	0f 1f 84 00 00 00 00 	nopl   0x0(%rax,%rax,1)
   140003ecf:	00 
   140003ed0:	8b 48 0c             	mov    0xc(%rax),%ecx
   140003ed3:	48 89 ca             	mov    %rcx,%rdx
   140003ed6:	4c 39 c1             	cmp    %r8,%rcx
   140003ed9:	77 08                	ja     140003ee3 <_FindPESection+0x43>
   140003edb:	03 50 08             	add    0x8(%rax),%edx
   140003ede:	4c 39 c2             	cmp    %r8,%rdx
   140003ee1:	77 0b                	ja     140003eee <_FindPESection+0x4e>
   140003ee3:	48 83 c0 28          	add    $0x28,%rax
   140003ee7:	4c 39 c8             	cmp    %r9,%rax
   140003eea:	75 e4                	jne    140003ed0 <_FindPESection+0x30>
   140003eec:	31 c0                	xor    %eax,%eax
   140003eee:	c3                   	ret    
   140003eef:	90                   	nop

0000000140003ef0 <_FindPESectionByName>:
   140003ef0:	41 54                	push   %r12
   140003ef2:	56                   	push   %rsi
   140003ef3:	53                   	push   %rbx
   140003ef4:	48 83 ec 20          	sub    $0x20,%rsp
   140003ef8:	48 89 cb             	mov    %rcx,%rbx
   140003efb:	e8 90 ef 00 00       	call   140012e90 <strlen>
   140003f00:	48 83 f8 08          	cmp    $0x8,%rax
   140003f04:	77 7a                	ja     140003f80 <_FindPESectionByName+0x90>
   140003f06:	48 8b 15 33 1d 01 00 	mov    0x11d33(%rip),%rdx        # 140015c40 <.refptr.__image_base__>
   140003f0d:	45 31 e4             	xor    %r12d,%r12d
   140003f10:	66 81 3a 4d 5a       	cmpw   $0x5a4d,(%rdx)
   140003f15:	75 57                	jne    140003f6e <_FindPESectionByName+0x7e>
   140003f17:	48 63 42 3c          	movslq 0x3c(%rdx),%rax
   140003f1b:	48 01 d0             	add    %rdx,%rax
   140003f1e:	81 38 50 45 00 00    	cmpl   $0x4550,(%rax)
   140003f24:	75 48                	jne    140003f6e <_FindPESectionByName+0x7e>
   140003f26:	66 81 78 18 0b 02    	cmpw   $0x20b,0x18(%rax)
   140003f2c:	75 40                	jne    140003f6e <_FindPESectionByName+0x7e>
   140003f2e:	0f b7 50 14          	movzwl 0x14(%rax),%edx
   140003f32:	4c 8d 64 10 18       	lea    0x18(%rax,%rdx,1),%r12
   140003f37:	0f b7 40 06          	movzwl 0x6(%rax),%eax
   140003f3b:	85 c0                	test   %eax,%eax
   140003f3d:	74 41                	je     140003f80 <_FindPESectionByName+0x90>
   140003f3f:	83 e8 01             	sub    $0x1,%eax
   140003f42:	48 8d 04 80          	lea    (%rax,%rax,4),%rax
   140003f46:	49 8d 74 c4 28       	lea    0x28(%r12,%rax,8),%rsi
   140003f4b:	eb 0c                	jmp    140003f59 <_FindPESectionByName+0x69>
   140003f4d:	0f 1f 00             	nopl   (%rax)
   140003f50:	49 83 c4 28          	add    $0x28,%r12
   140003f54:	49 39 f4             	cmp    %rsi,%r12
   140003f57:	74 27                	je     140003f80 <_FindPESectionByName+0x90>
   140003f59:	41 b8 08 00 00 00    	mov    $0x8,%r8d
   140003f5f:	48 89 da             	mov    %rbx,%rdx
   140003f62:	4c 89 e1             	mov    %r12,%rcx
   140003f65:	e8 1e ef 00 00       	call   140012e88 <strncmp>
   140003f6a:	85 c0                	test   %eax,%eax
   140003f6c:	75 e2                	jne    140003f50 <_FindPESectionByName+0x60>
   140003f6e:	4c 89 e0             	mov    %r12,%rax
   140003f71:	48 83 c4 20          	add    $0x20,%rsp
   140003f75:	5b                   	pop    %rbx
   140003f76:	5e                   	pop    %rsi
   140003f77:	41 5c                	pop    %r12
   140003f79:	c3                   	ret    
   140003f7a:	66 0f 1f 44 00 00    	nopw   0x0(%rax,%rax,1)
   140003f80:	45 31 e4             	xor    %r12d,%r12d
   140003f83:	4c 89 e0             	mov    %r12,%rax
   140003f86:	48 83 c4 20          	add    $0x20,%rsp
   140003f8a:	5b                   	pop    %rbx
   140003f8b:	5e                   	pop    %rsi
   140003f8c:	41 5c                	pop    %r12
   140003f8e:	c3                   	ret    
   140003f8f:	90                   	nop

0000000140003f90 <__mingw_GetSectionForAddress>:
   140003f90:	48 8b 15 a9 1c 01 00 	mov    0x11ca9(%rip),%rdx        # 140015c40 <.refptr.__image_base__>
   140003f97:	31 c0                	xor    %eax,%eax
   140003f99:	66 81 3a 4d 5a       	cmpw   $0x5a4d,(%rdx)
   140003f9e:	75 10                	jne    140003fb0 <__mingw_GetSectionForAddress+0x20>
   140003fa0:	4c 63 42 3c          	movslq 0x3c(%rdx),%r8
   140003fa4:	49 01 d0             	add    %rdx,%r8
   140003fa7:	41 81 38 50 45 00 00 	cmpl   $0x4550,(%r8)
   140003fae:	74 08                	je     140003fb8 <__mingw_GetSectionForAddress+0x28>
   140003fb0:	c3                   	ret    
   140003fb1:	0f 1f 80 00 00 00 00 	nopl   0x0(%rax)
   140003fb8:	66 41 81 78 18 0b 02 	cmpw   $0x20b,0x18(%r8)
   140003fbf:	75 ef                	jne    140003fb0 <__mingw_GetSectionForAddress+0x20>
   140003fc1:	41 0f b7 40 14       	movzwl 0x14(%r8),%eax
   140003fc6:	48 29 d1             	sub    %rdx,%rcx
   140003fc9:	41 0f b7 50 06       	movzwl 0x6(%r8),%edx
   140003fce:	49 8d 44 00 18       	lea    0x18(%r8,%rax,1),%rax
   140003fd3:	85 d2                	test   %edx,%edx
   140003fd5:	74 2e                	je     140004005 <__mingw_GetSectionForAddress+0x75>
   140003fd7:	83 ea 01             	sub    $0x1,%edx
   140003fda:	48 8d 14 92          	lea    (%rdx,%rdx,4),%rdx
   140003fde:	4c 8d 4c d0 28       	lea    0x28(%rax,%rdx,8),%r9
   140003fe3:	0f 1f 44 00 00       	nopl   0x0(%rax,%rax,1)
   140003fe8:	44 8b 40 0c          	mov    0xc(%rax),%r8d
   140003fec:	4c 89 c2             	mov    %r8,%rdx
   140003fef:	4c 39 c1             	cmp    %r8,%rcx
   140003ff2:	72 08                	jb     140003ffc <__mingw_GetSectionForAddress+0x6c>
   140003ff4:	03 50 08             	add    0x8(%rax),%edx
   140003ff7:	48 39 d1             	cmp    %rdx,%rcx
   140003ffa:	72 b4                	jb     140003fb0 <__mingw_GetSectionForAddress+0x20>
   140003ffc:	48 83 c0 28          	add    $0x28,%rax
   140004000:	4c 39 c8             	cmp    %r9,%rax
   140004003:	75 e3                	jne    140003fe8 <__mingw_GetSectionForAddress+0x58>
   140004005:	31 c0                	xor    %eax,%eax
   140004007:	c3                   	ret    
   140004008:	0f 1f 84 00 00 00 00 	nopl   0x0(%rax,%rax,1)
   14000400f:	00 

0000000140004010 <__mingw_GetSectionCount>:
   140004010:	48 8b 05 29 1c 01 00 	mov    0x11c29(%rip),%rax        # 140015c40 <.refptr.__image_base__>
   140004017:	45 31 c0             	xor    %r8d,%r8d
   14000401a:	66 81 38 4d 5a       	cmpw   $0x5a4d,(%rax)
   14000401f:	75 0f                	jne    140004030 <__mingw_GetSectionCount+0x20>
   140004021:	48 63 50 3c          	movslq 0x3c(%rax),%rdx
   140004025:	48 01 d0             	add    %rdx,%rax
   140004028:	81 38 50 45 00 00    	cmpl   $0x4550,(%rax)
   14000402e:	74 08                	je     140004038 <__mingw_GetSectionCount+0x28>
   140004030:	44 89 c0             	mov    %r8d,%eax
   140004033:	c3                   	ret    
   140004034:	0f 1f 40 00          	nopl   0x0(%rax)
   140004038:	66 81 78 18 0b 02    	cmpw   $0x20b,0x18(%rax)
   14000403e:	75 f0                	jne    140004030 <__mingw_GetSectionCount+0x20>
   140004040:	44 0f b7 40 06       	movzwl 0x6(%rax),%r8d
   140004045:	44 89 c0             	mov    %r8d,%eax
   140004048:	c3                   	ret    
   140004049:	0f 1f 80 00 00 00 00 	nopl   0x0(%rax)

0000000140004050 <_FindPESectionExec>:
   140004050:	4c 8b 05 e9 1b 01 00 	mov    0x11be9(%rip),%r8        # 140015c40 <.refptr.__image_base__>
   140004057:	31 c0                	xor    %eax,%eax
   140004059:	66 41 81 38 4d 5a    	cmpw   $0x5a4d,(%r8)
   14000405f:	75 0f                	jne    140004070 <_FindPESectionExec+0x20>
   140004061:	49 63 50 3c          	movslq 0x3c(%r8),%rdx
   140004065:	4c 01 c2             	add    %r8,%rdx
   140004068:	81 3a 50 45 00 00    	cmpl   $0x4550,(%rdx)
   14000406e:	74 08                	je     140004078 <_FindPESectionExec+0x28>
   140004070:	c3                   	ret    
   140004071:	0f 1f 80 00 00 00 00 	nopl   0x0(%rax)
   140004078:	66 81 7a 18 0b 02    	cmpw   $0x20b,0x18(%rdx)
   14000407e:	75 f0                	jne    140004070 <_FindPESectionExec+0x20>
   140004080:	0f b7 42 14          	movzwl 0x14(%rdx),%eax
   140004084:	48 8d 44 02 18       	lea    0x18(%rdx,%rax,1),%rax
   140004089:	0f b7 52 06          	movzwl 0x6(%rdx),%edx
   14000408d:	85 d2                	test   %edx,%edx
   14000408f:	74 27                	je     1400040b8 <_FindPESectionExec+0x68>
   140004091:	83 ea 01             	sub    $0x1,%edx
   140004094:	48 8d 14 92          	lea    (%rdx,%rdx,4),%rdx
   140004098:	48 8d 54 d0 28       	lea    0x28(%rax,%rdx,8),%rdx
   14000409d:	0f 1f 00             	nopl   (%rax)
   1400040a0:	f6 40 27 20          	testb  $0x20,0x27(%rax)
   1400040a4:	74 09                	je     1400040af <_FindPESectionExec+0x5f>
   1400040a6:	48 85 c9             	test   %rcx,%rcx
   1400040a9:	74 c5                	je     140004070 <_FindPESectionExec+0x20>
   1400040ab:	48 83 e9 01          	sub    $0x1,%rcx
   1400040af:	48 83 c0 28          	add    $0x28,%rax
   1400040b3:	48 39 d0             	cmp    %rdx,%rax
   1400040b6:	75 e8                	jne    1400040a0 <_FindPESectionExec+0x50>
   1400040b8:	31 c0                	xor    %eax,%eax
   1400040ba:	c3                   	ret    
   1400040bb:	0f 1f 44 00 00       	nopl   0x0(%rax,%rax,1)

00000001400040c0 <_GetPEImageBase>:
   1400040c0:	48 8b 05 79 1b 01 00 	mov    0x11b79(%rip),%rax        # 140015c40 <.refptr.__image_base__>
   1400040c7:	45 31 c0             	xor    %r8d,%r8d
   1400040ca:	66 81 38 4d 5a       	cmpw   $0x5a4d,(%rax)
   1400040cf:	75 0f                	jne    1400040e0 <_GetPEImageBase+0x20>
   1400040d1:	48 63 50 3c          	movslq 0x3c(%rax),%rdx
   1400040d5:	48 01 c2             	add    %rax,%rdx
   1400040d8:	81 3a 50 45 00 00    	cmpl   $0x4550,(%rdx)
   1400040de:	74 08                	je     1400040e8 <_GetPEImageBase+0x28>
   1400040e0:	4c 89 c0             	mov    %r8,%rax
   1400040e3:	c3                   	ret    
   1400040e4:	0f 1f 40 00          	nopl   0x0(%rax)
   1400040e8:	66 81 7a 18 0b 02    	cmpw   $0x20b,0x18(%rdx)
   1400040ee:	4c 0f 44 c0          	cmove  %rax,%r8
   1400040f2:	4c 89 c0             	mov    %r8,%rax
   1400040f5:	c3                   	ret    
   1400040f6:	66 2e 0f 1f 84 00 00 	cs nopw 0x0(%rax,%rax,1)
   1400040fd:	00 00 00 

0000000140004100 <_IsNonwritableInCurrentImage>:
   140004100:	48 8b 05 39 1b 01 00 	mov    0x11b39(%rip),%rax        # 140015c40 <.refptr.__image_base__>
   140004107:	45 31 c0             	xor    %r8d,%r8d
   14000410a:	66 81 38 4d 5a       	cmpw   $0x5a4d,(%rax)
   14000410f:	75 0f                	jne    140004120 <_IsNonwritableInCurrentImage+0x20>
   140004111:	48 63 50 3c          	movslq 0x3c(%rax),%rdx
   140004115:	48 01 c2             	add    %rax,%rdx
   140004118:	81 3a 50 45 00 00    	cmpl   $0x4550,(%rdx)
   14000411e:	74 08                	je     140004128 <_IsNonwritableInCurrentImage+0x28>
   140004120:	44 89 c0             	mov    %r8d,%eax
   140004123:	c3                   	ret    
   140004124:	0f 1f 40 00          	nopl   0x0(%rax)
   140004128:	66 81 7a 18 0b 02    	cmpw   $0x20b,0x18(%rdx)
   14000412e:	75 f0                	jne    140004120 <_IsNonwritableInCurrentImage+0x20>
   140004130:	48 29 c1             	sub    %rax,%rcx
   140004133:	0f b7 42 14          	movzwl 0x14(%rdx),%eax
   140004137:	48 8d 44 02 18       	lea    0x18(%rdx,%rax,1),%rax
   14000413c:	0f b7 52 06          	movzwl 0x6(%rdx),%edx
   140004140:	85 d2                	test   %edx,%edx
   140004142:	74 dc                	je     140004120 <_IsNonwritableInCurrentImage+0x20>
   140004144:	83 ea 01             	sub    $0x1,%edx
   140004147:	48 8d 14 92          	lea    (%rdx,%rdx,4),%rdx
   14000414b:	4c 8d 4c d0 28       	lea    0x28(%rax,%rdx,8),%r9
   140004150:	44 8b 40 0c          	mov    0xc(%rax),%r8d
   140004154:	4c 89 c2             	mov    %r8,%rdx
   140004157:	4c 39 c1             	cmp    %r8,%rcx
   14000415a:	72 08                	jb     140004164 <_IsNonwritableInCurrentImage+0x64>
   14000415c:	03 50 08             	add    0x8(%rax),%edx
   14000415f:	48 39 d1             	cmp    %rdx,%rcx
   140004162:	72 14                	jb     140004178 <_IsNonwritableInCurrentImage+0x78>
   140004164:	48 83 c0 28          	add    $0x28,%rax
   140004168:	49 39 c1             	cmp    %rax,%r9
   14000416b:	75 e3                	jne    140004150 <_IsNonwritableInCurrentImage+0x50>
   14000416d:	45 31 c0             	xor    %r8d,%r8d
   140004170:	44 89 c0             	mov    %r8d,%eax
   140004173:	c3                   	ret    
   140004174:	0f 1f 40 00          	nopl   0x0(%rax)
   140004178:	44 8b 40 24          	mov    0x24(%rax),%r8d
   14000417c:	41 f7 d0             	not    %r8d
   14000417f:	41 c1 e8 1f          	shr    $0x1f,%r8d
   140004183:	44 89 c0             	mov    %r8d,%eax
   140004186:	c3                   	ret    
   140004187:	66 0f 1f 84 00 00 00 	nopw   0x0(%rax,%rax,1)
   14000418e:	00 00 

0000000140004190 <__mingw_enum_import_library_names>:
   140004190:	4c 8b 1d a9 1a 01 00 	mov    0x11aa9(%rip),%r11        # 140015c40 <.refptr.__image_base__>
   140004197:	45 31 c9             	xor    %r9d,%r9d
   14000419a:	66 41 81 3b 4d 5a    	cmpw   $0x5a4d,(%r11)
   1400041a0:	75 10                	jne    1400041b2 <__mingw_enum_import_library_names+0x22>
   1400041a2:	4d 63 43 3c          	movslq 0x3c(%r11),%r8
   1400041a6:	4d 01 d8             	add    %r11,%r8
   1400041a9:	41 81 38 50 45 00 00 	cmpl   $0x4550,(%r8)
   1400041b0:	74 0e                	je     1400041c0 <__mingw_enum_import_library_names+0x30>
   1400041b2:	4c 89 c8             	mov    %r9,%rax
   1400041b5:	c3                   	ret    
   1400041b6:	66 2e 0f 1f 84 00 00 	cs nopw 0x0(%rax,%rax,1)
   1400041bd:	00 00 00 
   1400041c0:	66 41 81 78 18 0b 02 	cmpw   $0x20b,0x18(%r8)
   1400041c7:	75 e9                	jne    1400041b2 <__mingw_enum_import_library_names+0x22>
   1400041c9:	41 8b 80 90 00 00 00 	mov    0x90(%r8),%eax
   1400041d0:	85 c0                	test   %eax,%eax
   1400041d2:	74 de                	je     1400041b2 <__mingw_enum_import_library_names+0x22>
   1400041d4:	41 0f b7 50 14       	movzwl 0x14(%r8),%edx
   1400041d9:	49 8d 54 10 18       	lea    0x18(%r8,%rdx,1),%rdx
   1400041de:	45 0f b7 40 06       	movzwl 0x6(%r8),%r8d
   1400041e3:	45 85 c0             	test   %r8d,%r8d
   1400041e6:	74 ca                	je     1400041b2 <__mingw_enum_import_library_names+0x22>
   1400041e8:	41 83 e8 01          	sub    $0x1,%r8d
   1400041ec:	4f 8d 04 80          	lea    (%r8,%r8,4),%r8
   1400041f0:	4e 8d 54 c2 28       	lea    0x28(%rdx,%r8,8),%r10
   1400041f5:	0f 1f 00             	nopl   (%rax)
   1400041f8:	44 8b 4a 0c          	mov    0xc(%rdx),%r9d
   1400041fc:	4d 89 c8             	mov    %r9,%r8
   1400041ff:	4c 39 c8             	cmp    %r9,%rax
   140004202:	72 09                	jb     14000420d <__mingw_enum_import_library_names+0x7d>
   140004204:	44 03 42 08          	add    0x8(%rdx),%r8d
   140004208:	4c 39 c0             	cmp    %r8,%rax
   14000420b:	72 13                	jb     140004220 <__mingw_enum_import_library_names+0x90>
   14000420d:	48 83 c2 28          	add    $0x28,%rdx
   140004211:	49 39 d2             	cmp    %rdx,%r10
   140004214:	75 e2                	jne    1400041f8 <__mingw_enum_import_library_names+0x68>
   140004216:	45 31 c9             	xor    %r9d,%r9d
   140004219:	4c 89 c8             	mov    %r9,%rax
   14000421c:	c3                   	ret    
   14000421d:	0f 1f 00             	nopl   (%rax)
   140004220:	4c 01 d8             	add    %r11,%rax
   140004223:	eb 0a                	jmp    14000422f <__mingw_enum_import_library_names+0x9f>
   140004225:	0f 1f 00             	nopl   (%rax)
   140004228:	83 e9 01             	sub    $0x1,%ecx
   14000422b:	48 83 c0 14          	add    $0x14,%rax
   14000422f:	44 8b 40 04          	mov    0x4(%rax),%r8d
   140004233:	45 85 c0             	test   %r8d,%r8d
   140004236:	75 07                	jne    14000423f <__mingw_enum_import_library_names+0xaf>
   140004238:	8b 50 0c             	mov    0xc(%rax),%edx
   14000423b:	85 d2                	test   %edx,%edx
   14000423d:	74 d7                	je     140004216 <__mingw_enum_import_library_names+0x86>
   14000423f:	85 c9                	test   %ecx,%ecx
   140004241:	7f e5                	jg     140004228 <__mingw_enum_import_library_names+0x98>
   140004243:	44 8b 48 0c          	mov    0xc(%rax),%r9d
   140004247:	4d 01 d9             	add    %r11,%r9
   14000424a:	4c 89 c8             	mov    %r9,%rax
   14000424d:	c3                   	ret    
   14000424e:	90                   	nop
   14000424f:	90                   	nop

0000000140004250 <___chkstk_ms>:
   140004250:	51                   	push   %rcx
   140004251:	50                   	push   %rax
   140004252:	48 3d 00 10 00 00    	cmp    $0x1000,%rax
   140004258:	48 8d 4c 24 18       	lea    0x18(%rsp),%rcx
   14000425d:	72 19                	jb     140004278 <___chkstk_ms+0x28>
   14000425f:	48 81 e9 00 10 00 00 	sub    $0x1000,%rcx
   140004266:	48 83 09 00          	orq    $0x0,(%rcx)
   14000426a:	48 2d 00 10 00 00    	sub    $0x1000,%rax
   140004270:	48 3d 00 10 00 00    	cmp    $0x1000,%rax
   140004276:	77 e7                	ja     14000425f <___chkstk_ms+0xf>
   140004278:	48 29 c1             	sub    %rax,%rcx
   14000427b:	48 83 09 00          	orq    $0x0,(%rcx)
   14000427f:	58                   	pop    %rax
   140004280:	59                   	pop    %rcx
   140004281:	c3                   	ret    
   140004282:	90                   	nop
   140004283:	90                   	nop
   140004284:	90                   	nop
   140004285:	90                   	nop
   140004286:	90                   	nop
   140004287:	90                   	nop
   140004288:	90                   	nop
   140004289:	90                   	nop
   14000428a:	90                   	nop
   14000428b:	90                   	nop
   14000428c:	90                   	nop
   14000428d:	90                   	nop
   14000428e:	90                   	nop
   14000428f:	90                   	nop

0000000140004290 <SetThreadName_VEH>:
   140004290:	31 c0                	xor    %eax,%eax
   140004292:	48 8b 11             	mov    (%rcx),%rdx
   140004295:	48 85 d2             	test   %rdx,%rdx
   140004298:	74 0d                	je     1400042a7 <SetThreadName_VEH+0x17>
   14000429a:	31 c0                	xor    %eax,%eax
   14000429c:	81 3a 88 13 6d 40    	cmpl   $0x406d1388,(%rdx)
   1400042a2:	0f 94 c0             	sete   %al
   1400042a5:	f7 d8                	neg    %eax
   1400042a7:	c3                   	ret    
   1400042a8:	0f 1f 84 00 00 00 00 	nopl   0x0(%rax,%rax,1)
   1400042af:	00 

00000001400042b0 <__pthread_get_pointer>:
   1400042b0:	41 56                	push   %r14
   1400042b2:	41 55                	push   %r13
   1400042b4:	41 54                	push   %r12
   1400042b6:	55                   	push   %rbp
   1400042b7:	57                   	push   %rdi
   1400042b8:	56                   	push   %rsi
   1400042b9:	53                   	push   %rbx
   1400042ba:	48 83 ec 20          	sub    $0x20,%rsp
   1400042be:	4c 8b 2d fb 19 01 00 	mov    0x119fb(%rip),%r13        # 140015cc0 <.refptr.__shmem3_winpthreads_tdm_local_shmem_region>
   1400042c5:	49 8b 45 00          	mov    0x0(%r13),%rax
   1400042c9:	49 89 cc             	mov    %rcx,%r12
   1400042cc:	48 85 c0             	test   %rax,%rax
   1400042cf:	0f 84 4b 02 00 00    	je     140004520 <__pthread_get_pointer+0x270>
   1400042d5:	48 83 78 70 00       	cmpq   $0x0,0x70(%rax)
   1400042da:	0f 85 f0 00 00 00    	jne    1400043d0 <__pthread_get_pointer+0x120>
   1400042e0:	48 8d 15 c9 4e 01 00 	lea    0x14ec9(%rip),%rdx        # 1400191b0 <__shmem_idListCnt_shmem>
   1400042e7:	48 89 50 70          	mov    %rdx,0x70(%rax)
   1400042eb:	48 89 d0             	mov    %rdx,%rax
   1400042ee:	48 83 38 00          	cmpq   $0x0,(%rax)
   1400042f2:	0f 84 c0 00 00 00    	je     1400043b8 <__pthread_get_pointer+0x108>
   1400042f8:	49 8b 45 00          	mov    0x0(%r13),%rax
   1400042fc:	48 83 78 70 00       	cmpq   $0x0,0x70(%rax)
   140004301:	0f 85 d9 00 00 00    	jne    1400043e0 <__pthread_get_pointer+0x130>
   140004307:	48 8d 15 a2 4e 01 00 	lea    0x14ea2(%rip),%rdx        # 1400191b0 <__shmem_idListCnt_shmem>
   14000430e:	48 83 3a 01          	cmpq   $0x1,(%rdx)
   140004312:	48 89 50 70          	mov    %rdx,0x70(%rax)
   140004316:	0f 84 d2 00 00 00    	je     1400043ee <__pthread_get_pointer+0x13e>
   14000431c:	48 83 78 70 00       	cmpq   $0x0,0x70(%rax)
   140004321:	0f 84 89 01 00 00    	je     1400044b0 <__pthread_get_pointer+0x200>
   140004327:	48 8b 50 70          	mov    0x70(%rax),%rdx
   14000432b:	49 8b 45 00          	mov    0x0(%r13),%rax
   14000432f:	48 8b 2a             	mov    (%rdx),%rbp
   140004332:	31 ff                	xor    %edi,%edi
   140004334:	4c 8d 35 7d 4e 01 00 	lea    0x14e7d(%rip),%r14        # 1400191b8 <__shmem_idList_shmem>
   14000433b:	48 83 ed 01          	sub    $0x1,%rbp
   14000433f:	eb 19                	jmp    14000435a <__pthread_get_pointer+0xaa>
   140004341:	0f 1f 80 00 00 00 00 	nopl   0x0(%rax)
   140004348:	48 39 fb             	cmp    %rdi,%rbx
   14000434b:	74 6b                	je     1400043b8 <__pthread_get_pointer+0x108>
   14000434d:	48 8d 6b ff          	lea    -0x1(%rbx),%rbp
   140004351:	48 39 fd             	cmp    %rdi,%rbp
   140004354:	72 62                	jb     1400043b8 <__pthread_get_pointer+0x108>
   140004356:	49 8b 45 00          	mov    0x0(%r13),%rax
   14000435a:	48 8d 1c 2f          	lea    (%rdi,%rbp,1),%rbx
   14000435e:	48 d1 eb             	shr    %rbx
   140004361:	48 85 c0             	test   %rax,%rax
   140004364:	0f 84 1e 01 00 00    	je     140004488 <__pthread_get_pointer+0x1d8>
   14000436a:	48 83 78 68 00       	cmpq   $0x0,0x68(%rax)
   14000436f:	0f 84 bb 00 00 00    	je     140004430 <__pthread_get_pointer+0x180>
   140004375:	48 8b 40 68          	mov    0x68(%rax),%rax
   140004379:	48 89 de             	mov    %rbx,%rsi
   14000437c:	48 c1 e6 04          	shl    $0x4,%rsi
   140004380:	48 8b 00             	mov    (%rax),%rax
   140004383:	4c 39 64 30 08       	cmp    %r12,0x8(%rax,%rsi,1)
   140004388:	49 8b 45 00          	mov    0x0(%r13),%rax
   14000438c:	0f 84 2e 01 00 00    	je     1400044c0 <__pthread_get_pointer+0x210>
   140004392:	48 83 78 68 00       	cmpq   $0x0,0x68(%rax)
   140004397:	0f 84 db 00 00 00    	je     140004478 <__pthread_get_pointer+0x1c8>
   14000439d:	48 8b 40 68          	mov    0x68(%rax),%rax
   1400043a1:	48 8b 00             	mov    (%rax),%rax
   1400043a4:	4c 39 64 30 08       	cmp    %r12,0x8(%rax,%rsi,1)
   1400043a9:	77 9d                	ja     140004348 <__pthread_get_pointer+0x98>
   1400043ab:	48 8d 7b 01          	lea    0x1(%rbx),%rdi
   1400043af:	48 39 fd             	cmp    %rdi,%rbp
   1400043b2:	73 a2                	jae    140004356 <__pthread_get_pointer+0xa6>
   1400043b4:	0f 1f 40 00          	nopl   0x0(%rax)
   1400043b8:	31 c0                	xor    %eax,%eax
   1400043ba:	48 83 c4 20          	add    $0x20,%rsp
   1400043be:	5b                   	pop    %rbx
   1400043bf:	5e                   	pop    %rsi
   1400043c0:	5f                   	pop    %rdi
   1400043c1:	5d                   	pop    %rbp
   1400043c2:	41 5c                	pop    %r12
   1400043c4:	41 5d                	pop    %r13
   1400043c6:	41 5e                	pop    %r14
   1400043c8:	c3                   	ret    
   1400043c9:	0f 1f 80 00 00 00 00 	nopl   0x0(%rax)
   1400043d0:	48 8b 40 70          	mov    0x70(%rax),%rax
   1400043d4:	e9 15 ff ff ff       	jmp    1400042ee <__pthread_get_pointer+0x3e>
   1400043d9:	0f 1f 80 00 00 00 00 	nopl   0x0(%rax)
   1400043e0:	48 8b 50 70          	mov    0x70(%rax),%rdx
   1400043e4:	48 83 3a 01          	cmpq   $0x1,(%rdx)
   1400043e8:	0f 85 2e ff ff ff    	jne    14000431c <__pthread_get_pointer+0x6c>
   1400043ee:	48 83 78 68 00       	cmpq   $0x0,0x68(%rax)
   1400043f3:	0f 84 c7 01 00 00    	je     1400045c0 <__pthread_get_pointer+0x310>
   1400043f9:	48 8b 50 68          	mov    0x68(%rax),%rdx
   1400043fd:	48 8b 12             	mov    (%rdx),%rdx
   140004400:	4c 3b 62 08          	cmp    0x8(%rdx),%r12
   140004404:	75 b2                	jne    1400043b8 <__pthread_get_pointer+0x108>
   140004406:	48 83 78 68 00       	cmpq   $0x0,0x68(%rax)
   14000440b:	0f 84 22 02 00 00    	je     140004633 <__pthread_get_pointer+0x383>
   140004411:	48 85 c0             	test   %rax,%rax
   140004414:	0f 84 2c 02 00 00    	je     140004646 <__pthread_get_pointer+0x396>
   14000441a:	48 8b 40 68          	mov    0x68(%rax),%rax
   14000441e:	48 8b 00             	mov    (%rax),%rax
   140004421:	48 8b 00             	mov    (%rax),%rax
   140004424:	eb 94                	jmp    1400043ba <__pthread_get_pointer+0x10a>
   140004426:	66 2e 0f 1f 84 00 00 	cs nopw 0x0(%rax,%rax,1)
   14000442d:	00 00 00 
   140004430:	4c 89 70 68          	mov    %r14,0x68(%rax)
   140004434:	4c 89 f2             	mov    %r14,%rdx
   140004437:	48 89 de             	mov    %rbx,%rsi
   14000443a:	48 8b 12             	mov    (%rdx),%rdx
   14000443d:	48 c1 e6 04          	shl    $0x4,%rsi
   140004441:	4c 39 64 32 08       	cmp    %r12,0x8(%rdx,%rsi,1)
   140004446:	74 78                	je     1400044c0 <__pthread_get_pointer+0x210>
   140004448:	48 85 c0             	test   %rax,%rax
   14000444b:	0f 85 41 ff ff ff    	jne    140004392 <__pthread_get_pointer+0xe2>
   140004451:	e8 5a 63 00 00       	call   14000a7b0 <__shmem3_winpthreads_tdm_init_local_region>
   140004456:	48 83 78 68 00       	cmpq   $0x0,0x68(%rax)
   14000445b:	49 8b 45 00          	mov    0x0(%r13),%rax
   14000445f:	74 17                	je     140004478 <__pthread_get_pointer+0x1c8>
   140004461:	48 85 c0             	test   %rax,%rax
   140004464:	0f 85 33 ff ff ff    	jne    14000439d <__pthread_get_pointer+0xed>
   14000446a:	e8 41 63 00 00       	call   14000a7b0 <__shmem3_winpthreads_tdm_init_local_region>
   14000446f:	e9 29 ff ff ff       	jmp    14000439d <__pthread_get_pointer+0xed>
   140004474:	0f 1f 40 00          	nopl   0x0(%rax)
   140004478:	4c 89 70 68          	mov    %r14,0x68(%rax)
   14000447c:	4c 89 f0             	mov    %r14,%rax
   14000447f:	e9 1d ff ff ff       	jmp    1400043a1 <__pthread_get_pointer+0xf1>
   140004484:	0f 1f 40 00          	nopl   0x0(%rax)
   140004488:	e8 23 63 00 00       	call   14000a7b0 <__shmem3_winpthreads_tdm_init_local_region>
   14000448d:	48 83 78 68 00       	cmpq   $0x0,0x68(%rax)
   140004492:	49 8b 45 00          	mov    0x0(%r13),%rax
   140004496:	74 98                	je     140004430 <__pthread_get_pointer+0x180>
   140004498:	48 85 c0             	test   %rax,%rax
   14000449b:	0f 85 d4 fe ff ff    	jne    140004375 <__pthread_get_pointer+0xc5>
   1400044a1:	e8 0a 63 00 00       	call   14000a7b0 <__shmem3_winpthreads_tdm_init_local_region>
   1400044a6:	48 8b 50 68          	mov    0x68(%rax),%rdx
   1400044aa:	49 8b 45 00          	mov    0x0(%r13),%rax
   1400044ae:	eb 87                	jmp    140004437 <__pthread_get_pointer+0x187>
   1400044b0:	48 8d 15 f9 4c 01 00 	lea    0x14cf9(%rip),%rdx        # 1400191b0 <__shmem_idListCnt_shmem>
   1400044b7:	48 89 50 70          	mov    %rdx,0x70(%rax)
   1400044bb:	e9 6f fe ff ff       	jmp    14000432f <__pthread_get_pointer+0x7f>
   1400044c0:	48 85 c0             	test   %rax,%rax
   1400044c3:	74 2b                	je     1400044f0 <__pthread_get_pointer+0x240>
   1400044c5:	48 83 78 68 00       	cmpq   $0x0,0x68(%rax)
   1400044ca:	75 44                	jne    140004510 <__pthread_get_pointer+0x260>
   1400044cc:	48 8d 15 e5 4c 01 00 	lea    0x14ce5(%rip),%rdx        # 1400191b8 <__shmem_idList_shmem>
   1400044d3:	48 89 50 68          	mov    %rdx,0x68(%rax)
   1400044d7:	48 89 d0             	mov    %rdx,%rax
   1400044da:	48 8b 00             	mov    (%rax),%rax
   1400044dd:	48 8b 04 30          	mov    (%rax,%rsi,1),%rax
   1400044e1:	48 83 c4 20          	add    $0x20,%rsp
   1400044e5:	5b                   	pop    %rbx
   1400044e6:	5e                   	pop    %rsi
   1400044e7:	5f                   	pop    %rdi
   1400044e8:	5d                   	pop    %rbp
   1400044e9:	41 5c                	pop    %r12
   1400044eb:	41 5d                	pop    %r13
   1400044ed:	41 5e                	pop    %r14
   1400044ef:	c3                   	ret    
   1400044f0:	e8 bb 62 00 00       	call   14000a7b0 <__shmem3_winpthreads_tdm_init_local_region>
   1400044f5:	49 89 c0             	mov    %rax,%r8
   1400044f8:	49 8b 45 00          	mov    0x0(%r13),%rax
   1400044fc:	49 83 78 68 00       	cmpq   $0x0,0x68(%r8)
   140004501:	74 c9                	je     1400044cc <__pthread_get_pointer+0x21c>
   140004503:	48 85 c0             	test   %rax,%rax
   140004506:	75 08                	jne    140004510 <__pthread_get_pointer+0x260>
   140004508:	e8 a3 62 00 00       	call   14000a7b0 <__shmem3_winpthreads_tdm_init_local_region>
   14000450d:	0f 1f 00             	nopl   (%rax)
   140004510:	48 8b 40 68          	mov    0x68(%rax),%rax
   140004514:	eb c4                	jmp    1400044da <__pthread_get_pointer+0x22a>
   140004516:	66 2e 0f 1f 84 00 00 	cs nopw 0x0(%rax,%rax,1)
   14000451d:	00 00 00 
   140004520:	e8 8b 62 00 00       	call   14000a7b0 <__shmem3_winpthreads_tdm_init_local_region>
   140004525:	48 83 78 70 00       	cmpq   $0x0,0x70(%rax)
   14000452a:	49 8b 45 00          	mov    0x0(%r13),%rax
   14000452e:	0f 84 ac fd ff ff    	je     1400042e0 <__pthread_get_pointer+0x30>
   140004534:	48 85 c0             	test   %rax,%rax
   140004537:	0f 85 93 fe ff ff    	jne    1400043d0 <__pthread_get_pointer+0x120>
   14000453d:	e8 6e 62 00 00       	call   14000a7b0 <__shmem3_winpthreads_tdm_init_local_region>
   140004542:	48 8b 40 70          	mov    0x70(%rax),%rax
   140004546:	48 83 38 00          	cmpq   $0x0,(%rax)
   14000454a:	0f 84 68 fe ff ff    	je     1400043b8 <__pthread_get_pointer+0x108>
   140004550:	49 8b 45 00          	mov    0x0(%r13),%rax
   140004554:	48 85 c0             	test   %rax,%rax
   140004557:	0f 85 9f fd ff ff    	jne    1400042fc <__pthread_get_pointer+0x4c>
   14000455d:	e8 4e 62 00 00       	call   14000a7b0 <__shmem3_winpthreads_tdm_init_local_region>
   140004562:	48 83 78 70 00       	cmpq   $0x0,0x70(%rax)
   140004567:	49 8b 45 00          	mov    0x0(%r13),%rax
   14000456b:	0f 84 96 fd ff ff    	je     140004307 <__pthread_get_pointer+0x57>
   140004571:	48 85 c0             	test   %rax,%rax
   140004574:	0f 85 66 fe ff ff    	jne    1400043e0 <__pthread_get_pointer+0x130>
   14000457a:	e8 31 62 00 00       	call   14000a7b0 <__shmem3_winpthreads_tdm_init_local_region>
   14000457f:	48 8b 40 70          	mov    0x70(%rax),%rax
   140004583:	48 83 38 01          	cmpq   $0x1,(%rax)
   140004587:	74 47                	je     1400045d0 <__pthread_get_pointer+0x320>
   140004589:	49 8b 45 00          	mov    0x0(%r13),%rax
   14000458d:	48 85 c0             	test   %rax,%rax
   140004590:	0f 85 86 fd ff ff    	jne    14000431c <__pthread_get_pointer+0x6c>
   140004596:	e8 15 62 00 00       	call   14000a7b0 <__shmem3_winpthreads_tdm_init_local_region>
   14000459b:	48 83 78 70 00       	cmpq   $0x0,0x70(%rax)
   1400045a0:	49 8b 45 00          	mov    0x0(%r13),%rax
   1400045a4:	0f 84 06 ff ff ff    	je     1400044b0 <__pthread_get_pointer+0x200>
   1400045aa:	48 85 c0             	test   %rax,%rax
   1400045ad:	0f 85 74 fd ff ff    	jne    140004327 <__pthread_get_pointer+0x77>
   1400045b3:	e8 f8 61 00 00       	call   14000a7b0 <__shmem3_winpthreads_tdm_init_local_region>
   1400045b8:	e9 6a fd ff ff       	jmp    140004327 <__pthread_get_pointer+0x77>
   1400045bd:	0f 1f 00             	nopl   (%rax)
   1400045c0:	48 8d 15 f1 4b 01 00 	lea    0x14bf1(%rip),%rdx        # 1400191b8 <__shmem_idList_shmem>
   1400045c7:	48 89 50 68          	mov    %rdx,0x68(%rax)
   1400045cb:	e9 2d fe ff ff       	jmp    1400043fd <__pthread_get_pointer+0x14d>
   1400045d0:	49 8b 45 00          	mov    0x0(%r13),%rax
   1400045d4:	48 85 c0             	test   %rax,%rax
   1400045d7:	0f 85 11 fe ff ff    	jne    1400043ee <__pthread_get_pointer+0x13e>
   1400045dd:	e8 ce 61 00 00       	call   14000a7b0 <__shmem3_winpthreads_tdm_init_local_region>
   1400045e2:	49 89 c0             	mov    %rax,%r8
   1400045e5:	49 8b 45 00          	mov    0x0(%r13),%rax
   1400045e9:	49 83 78 68 00       	cmpq   $0x0,0x68(%r8)
   1400045ee:	74 d0                	je     1400045c0 <__pthread_get_pointer+0x310>
   1400045f0:	48 85 c0             	test   %rax,%rax
   1400045f3:	0f 85 00 fe ff ff    	jne    1400043f9 <__pthread_get_pointer+0x149>
   1400045f9:	e8 b2 61 00 00       	call   14000a7b0 <__shmem3_winpthreads_tdm_init_local_region>
   1400045fe:	48 8b 40 68          	mov    0x68(%rax),%rax
   140004602:	48 8b 00             	mov    (%rax),%rax
   140004605:	4c 39 60 08          	cmp    %r12,0x8(%rax)
   140004609:	0f 85 a9 fd ff ff    	jne    1400043b8 <__pthread_get_pointer+0x108>
   14000460f:	49 8b 45 00          	mov    0x0(%r13),%rax
   140004613:	48 85 c0             	test   %rax,%rax
   140004616:	0f 85 ea fd ff ff    	jne    140004406 <__pthread_get_pointer+0x156>
   14000461c:	e8 8f 61 00 00       	call   14000a7b0 <__shmem3_winpthreads_tdm_init_local_region>
   140004621:	49 89 c0             	mov    %rax,%r8
   140004624:	49 8b 45 00          	mov    0x0(%r13),%rax
   140004628:	49 83 78 68 00       	cmpq   $0x0,0x68(%r8)
   14000462d:	0f 85 de fd ff ff    	jne    140004411 <__pthread_get_pointer+0x161>
   140004633:	48 8d 15 7e 4b 01 00 	lea    0x14b7e(%rip),%rdx        # 1400191b8 <__shmem_idList_shmem>
   14000463a:	48 89 50 68          	mov    %rdx,0x68(%rax)
   14000463e:	48 89 d0             	mov    %rdx,%rax
   140004641:	e9 d8 fd ff ff       	jmp    14000441e <__pthread_get_pointer+0x16e>
   140004646:	e8 65 61 00 00       	call   14000a7b0 <__shmem3_winpthreads_tdm_init_local_region>
   14000464b:	e9 ca fd ff ff       	jmp    14000441a <__pthread_get_pointer+0x16a>

0000000140004650 <enterOnceObject>:
   140004650:	41 54                	push   %r12
   140004652:	56                   	push   %rsi
   140004653:	53                   	push   %rbx
   140004654:	48 83 ec 20          	sub    $0x20,%rsp
   140004658:	48 8b 35 61 16 01 00 	mov    0x11661(%rip),%rsi        # 140015cc0 <.refptr.__shmem3_winpthreads_tdm_local_shmem_region>
   14000465f:	48 8b 06             	mov    (%rsi),%rax
   140004662:	48 89 cb             	mov    %rcx,%rbx
   140004665:	48 85 c0             	test   %rax,%rax
   140004668:	0f 84 12 01 00 00    	je     140004780 <enterOnceObject+0x130>
   14000466e:	48 83 b8 90 00 00 00 	cmpq   $0x0,0x90(%rax)
   140004675:	00 
   140004676:	0f 85 24 01 00 00    	jne    1400047a0 <enterOnceObject+0x150>
   14000467c:	48 8d 0d dd f9 00 00 	lea    0xf9dd(%rip),%rcx        # 140014060 <__shmem_once_global_shmem>
   140004683:	48 89 88 90 00 00 00 	mov    %rcx,0x90(%rax)
   14000468a:	e8 d1 7f 00 00       	call   14000c660 <pthread_spin_lock>
   14000468f:	48 8b 06             	mov    (%rsi),%rax
   140004692:	48 85 c0             	test   %rax,%rax
   140004695:	0f 84 b5 00 00 00    	je     140004750 <enterOnceObject+0x100>
   14000469b:	48 83 b8 88 00 00 00 	cmpq   $0x0,0x88(%rax)
   1400046a2:	00 
   1400046a3:	0f 85 c7 00 00 00    	jne    140004770 <enterOnceObject+0x120>
   1400046a9:	48 8d 15 e8 4a 01 00 	lea    0x14ae8(%rip),%rdx        # 140019198 <__shmem_once_obj_shmem>
   1400046b0:	48 89 90 88 00 00 00 	mov    %rdx,0x88(%rax)
   1400046b7:	48 89 d0             	mov    %rdx,%rax
   1400046ba:	4c 8b 20             	mov    (%rax),%r12
   1400046bd:	4d 85 e4             	test   %r12,%r12
   1400046c0:	75 1f                	jne    1400046e1 <enterOnceObject+0x91>
   1400046c2:	e9 23 01 00 00       	jmp    1400047ea <enterOnceObject+0x19a>
   1400046c7:	66 0f 1f 84 00 00 00 	nopw   0x0(%rax,%rax,1)
   1400046ce:	00 00 
   1400046d0:	49 8b 44 24 18       	mov    0x18(%r12),%rax
   1400046d5:	48 85 c0             	test   %rax,%rax
   1400046d8:	0f 84 da 00 00 00    	je     1400047b8 <enterOnceObject+0x168>
   1400046de:	49 89 c4             	mov    %rax,%r12
   1400046e1:	49 39 1c 24          	cmp    %rbx,(%r12)
   1400046e5:	75 e9                	jne    1400046d0 <enterOnceObject+0x80>
   1400046e7:	41 83 44 24 10 01    	addl   $0x1,0x10(%r12)
   1400046ed:	48 8b 06             	mov    (%rsi),%rax
   1400046f0:	48 85 c0             	test   %rax,%rax
   1400046f3:	74 2b                	je     140004720 <enterOnceObject+0xd0>
   1400046f5:	48 83 b8 90 00 00 00 	cmpq   $0x0,0x90(%rax)
   1400046fc:	00 
   1400046fd:	75 39                	jne    140004738 <enterOnceObject+0xe8>
   1400046ff:	48 8d 0d 5a f9 00 00 	lea    0xf95a(%rip),%rcx        # 140014060 <__shmem_once_global_shmem>
   140004706:	48 89 88 90 00 00 00 	mov    %rcx,0x90(%rax)
   14000470d:	e8 8e 7f 00 00       	call   14000c6a0 <pthread_spin_unlock>
   140004712:	4c 89 e0             	mov    %r12,%rax
   140004715:	48 83 c4 20          	add    $0x20,%rsp
   140004719:	5b                   	pop    %rbx
   14000471a:	5e                   	pop    %rsi
   14000471b:	41 5c                	pop    %r12
   14000471d:	c3                   	ret    
   14000471e:	66 90                	xchg   %ax,%ax
   140004720:	e8 8b 60 00 00       	call   14000a7b0 <__shmem3_winpthreads_tdm_init_local_region>
   140004725:	49 89 c0             	mov    %rax,%r8
   140004728:	48 8b 06             	mov    (%rsi),%rax
   14000472b:	49 83 b8 90 00 00 00 	cmpq   $0x0,0x90(%r8)
   140004732:	00 
   140004733:	74 ca                	je     1400046ff <enterOnceObject+0xaf>
   140004735:	0f 1f 00             	nopl   (%rax)
   140004738:	48 85 c0             	test   %rax,%rax
   14000473b:	74 6f                	je     1400047ac <enterOnceObject+0x15c>
   14000473d:	48 8b 88 90 00 00 00 	mov    0x90(%rax),%rcx
   140004744:	eb c7                	jmp    14000470d <enterOnceObject+0xbd>
   140004746:	66 2e 0f 1f 84 00 00 	cs nopw 0x0(%rax,%rax,1)
   14000474d:	00 00 00 
   140004750:	e8 5b 60 00 00       	call   14000a7b0 <__shmem3_winpthreads_tdm_init_local_region>
   140004755:	48 83 b8 88 00 00 00 	cmpq   $0x0,0x88(%rax)
   14000475c:	00 
   14000475d:	48 8b 06             	mov    (%rsi),%rax
   140004760:	0f 84 43 ff ff ff    	je     1400046a9 <enterOnceObject+0x59>
   140004766:	48 85 c0             	test   %rax,%rax
   140004769:	75 05                	jne    140004770 <enterOnceObject+0x120>
   14000476b:	e8 40 60 00 00       	call   14000a7b0 <__shmem3_winpthreads_tdm_init_local_region>
   140004770:	48 8b 80 88 00 00 00 	mov    0x88(%rax),%rax
   140004777:	e9 3e ff ff ff       	jmp    1400046ba <enterOnceObject+0x6a>
   14000477c:	0f 1f 40 00          	nopl   0x0(%rax)
   140004780:	e8 2b 60 00 00       	call   14000a7b0 <__shmem3_winpthreads_tdm_init_local_region>
   140004785:	48 83 b8 90 00 00 00 	cmpq   $0x0,0x90(%rax)
   14000478c:	00 
   14000478d:	48 8b 06             	mov    (%rsi),%rax
   140004790:	0f 84 e6 fe ff ff    	je     14000467c <enterOnceObject+0x2c>
   140004796:	48 85 c0             	test   %rax,%rax
   140004799:	75 05                	jne    1400047a0 <enterOnceObject+0x150>
   14000479b:	e8 10 60 00 00       	call   14000a7b0 <__shmem3_winpthreads_tdm_init_local_region>
   1400047a0:	48 8b 88 90 00 00 00 	mov    0x90(%rax),%rcx
   1400047a7:	e9 de fe ff ff       	jmp    14000468a <enterOnceObject+0x3a>
   1400047ac:	e8 ff 5f 00 00       	call   14000a7b0 <__shmem3_winpthreads_tdm_init_local_region>
   1400047b1:	eb 8a                	jmp    14000473d <enterOnceObject+0xed>
   1400047b3:	0f 1f 44 00 00       	nopl   0x0(%rax,%rax,1)
   1400047b8:	ba 20 00 00 00       	mov    $0x20,%edx
   1400047bd:	b9 01 00 00 00       	mov    $0x1,%ecx
   1400047c2:	e8 69 e7 00 00       	call   140012f30 <calloc>
   1400047c7:	48 89 18             	mov    %rbx,(%rax)
   1400047ca:	c7 40 10 01 00 00 00 	movl   $0x1,0x10(%rax)
   1400047d1:	49 89 44 24 18       	mov    %rax,0x18(%r12)
   1400047d6:	49 89 c4             	mov    %rax,%r12
   1400047d9:	49 8d 4c 24 08       	lea    0x8(%r12),%rcx
   1400047de:	31 d2                	xor    %edx,%edx
   1400047e0:	e8 9b 6a 00 00       	call   14000b280 <pthread_mutex_init>
   1400047e5:	e9 03 ff ff ff       	jmp    1400046ed <enterOnceObject+0x9d>
   1400047ea:	ba 20 00 00 00       	mov    $0x20,%edx
   1400047ef:	b9 01 00 00 00       	mov    $0x1,%ecx
   1400047f4:	e8 37 e7 00 00       	call   140012f30 <calloc>
   1400047f9:	48 89 18             	mov    %rbx,(%rax)
   1400047fc:	49 89 c4             	mov    %rax,%r12
   1400047ff:	c7 40 10 01 00 00 00 	movl   $0x1,0x10(%rax)
   140004806:	48 8b 06             	mov    (%rsi),%rax
   140004809:	48 85 c0             	test   %rax,%rax
   14000480c:	74 16                	je     140004824 <enterOnceObject+0x1d4>
   14000480e:	48 83 b8 88 00 00 00 	cmpq   $0x0,0x88(%rax)
   140004815:	00 
   140004816:	74 2d                	je     140004845 <enterOnceObject+0x1f5>
   140004818:	48 8b 80 88 00 00 00 	mov    0x88(%rax),%rax
   14000481f:	4c 89 20             	mov    %r12,(%rax)
   140004822:	eb b5                	jmp    1400047d9 <enterOnceObject+0x189>
   140004824:	e8 87 5f 00 00       	call   14000a7b0 <__shmem3_winpthreads_tdm_init_local_region>
   140004829:	49 89 c0             	mov    %rax,%r8
   14000482c:	48 8b 06             	mov    (%rsi),%rax
   14000482f:	49 83 b8 88 00 00 00 	cmpq   $0x0,0x88(%r8)
   140004836:	00 
   140004837:	74 0c                	je     140004845 <enterOnceObject+0x1f5>
   140004839:	48 85 c0             	test   %rax,%rax
   14000483c:	75 da                	jne    140004818 <enterOnceObject+0x1c8>
   14000483e:	e8 6d 5f 00 00       	call   14000a7b0 <__shmem3_winpthreads_tdm_init_local_region>
   140004843:	eb d3                	jmp    140004818 <enterOnceObject+0x1c8>
   140004845:	48 8d 15 4c 49 01 00 	lea    0x1494c(%rip),%rdx        # 140019198 <__shmem_once_obj_shmem>
   14000484c:	48 89 90 88 00 00 00 	mov    %rdx,0x88(%rax)
   140004853:	48 89 d0             	mov    %rdx,%rax
   140004856:	eb c7                	jmp    14000481f <enterOnceObject+0x1cf>
   140004858:	0f 1f 84 00 00 00 00 	nopl   0x0(%rax,%rax,1)
   14000485f:	00 

0000000140004860 <leaveOnceObject>:
   140004860:	41 54                	push   %r12
   140004862:	56                   	push   %rsi
   140004863:	53                   	push   %rbx
   140004864:	48 83 ec 20          	sub    $0x20,%rsp
   140004868:	49 89 cc             	mov    %rcx,%r12
   14000486b:	48 85 c9             	test   %rcx,%rcx
   14000486e:	0f 84 ec 01 00 00    	je     140004a60 <leaveOnceObject+0x200>
   140004874:	48 8b 35 45 14 01 00 	mov    0x11445(%rip),%rsi        # 140015cc0 <.refptr.__shmem3_winpthreads_tdm_local_shmem_region>
   14000487b:	48 8b 06             	mov    (%rsi),%rax
   14000487e:	48 85 c0             	test   %rax,%rax
   140004881:	0f 84 c1 00 00 00    	je     140004948 <leaveOnceObject+0xe8>
   140004887:	48 83 b8 90 00 00 00 	cmpq   $0x0,0x90(%rax)
   14000488e:	00 
   14000488f:	0f 85 db 00 00 00    	jne    140004970 <leaveOnceObject+0x110>
   140004895:	48 8d 0d c4 f7 00 00 	lea    0xf7c4(%rip),%rcx        # 140014060 <__shmem_once_global_shmem>
   14000489c:	48 89 88 90 00 00 00 	mov    %rcx,0x90(%rax)
   1400048a3:	e8 b8 7d 00 00       	call   14000c660 <pthread_spin_lock>
   1400048a8:	48 8b 06             	mov    (%rsi),%rax
   1400048ab:	48 85 c0             	test   %rax,%rax
   1400048ae:	0f 84 d4 00 00 00    	je     140004988 <leaveOnceObject+0x128>
   1400048b4:	48 83 b8 88 00 00 00 	cmpq   $0x0,0x88(%rax)
   1400048bb:	00 
   1400048bc:	0f 84 ee 00 00 00    	je     1400049b0 <leaveOnceObject+0x150>
   1400048c2:	48 8b 80 88 00 00 00 	mov    0x88(%rax),%rax
   1400048c9:	48 8b 00             	mov    (%rax),%rax
   1400048cc:	49 39 c4             	cmp    %rax,%r12
   1400048cf:	0f 84 c3 01 00 00    	je     140004a98 <leaveOnceObject+0x238>
   1400048d5:	48 85 c0             	test   %rax,%rax
   1400048d8:	0f 84 ba 01 00 00    	je     140004a98 <leaveOnceObject+0x238>
   1400048de:	66 90                	xchg   %ax,%ax
   1400048e0:	48 89 c3             	mov    %rax,%rbx
   1400048e3:	48 8b 40 18          	mov    0x18(%rax),%rax
   1400048e7:	48 85 c0             	test   %rax,%rax
   1400048ea:	0f 84 80 01 00 00    	je     140004a70 <leaveOnceObject+0x210>
   1400048f0:	49 39 c4             	cmp    %rax,%r12
   1400048f3:	75 eb                	jne    1400048e0 <leaveOnceObject+0x80>
   1400048f5:	48 85 c0             	test   %rax,%rax
   1400048f8:	0f 84 72 01 00 00    	je     140004a70 <leaveOnceObject+0x210>
   1400048fe:	41 83 6c 24 10 01    	subl   $0x1,0x10(%r12)
   140004904:	0f 84 fe 00 00 00    	je     140004a08 <leaveOnceObject+0x1a8>
   14000490a:	48 8b 06             	mov    (%rsi),%rax
   14000490d:	48 85 c0             	test   %rax,%rax
   140004910:	0f 84 ba 00 00 00    	je     1400049d0 <leaveOnceObject+0x170>
   140004916:	48 83 b8 90 00 00 00 	cmpq   $0x0,0x90(%rax)
   14000491d:	00 
   14000491e:	0f 84 c5 00 00 00    	je     1400049e9 <leaveOnceObject+0x189>
   140004924:	48 85 c0             	test   %rax,%rax
   140004927:	0f 84 72 01 00 00    	je     140004a9f <leaveOnceObject+0x23f>
   14000492d:	48 8b 88 90 00 00 00 	mov    0x90(%rax),%rcx
   140004934:	48 83 c4 20          	add    $0x20,%rsp
   140004938:	5b                   	pop    %rbx
   140004939:	5e                   	pop    %rsi
   14000493a:	41 5c                	pop    %r12
   14000493c:	e9 5f 7d 00 00       	jmp    14000c6a0 <pthread_spin_unlock>
   140004941:	0f 1f 80 00 00 00 00 	nopl   0x0(%rax)
